
autoclk3.0.elf:     file format elf32-avr

Sections:
Idx Name          Size      VMA       LMA       File off  Algn
  0 .text         00001d9e  00000000  00000000  00000094  2**1
                  CONTENTS, ALLOC, LOAD, READONLY, CODE
  1 .data         000002b0  00800060  00001d9e  00001e32  2**0
                  CONTENTS, ALLOC, LOAD, DATA
  2 .bss          0000000c  00800310  00800310  000020e2  2**0
                  ALLOC
  3 .stab         00001c08  00000000  00000000  000020e4  2**2
                  CONTENTS, READONLY, DEBUGGING
  4 .stabstr      0000039e  00000000  00000000  00003cec  2**0
                  CONTENTS, READONLY, DEBUGGING
  5 .comment      00000011  00000000  00000000  0000408a  2**0
                  CONTENTS, READONLY

Disassembly of section .text:

00000000 <__vectors>:
       0:	0c 94 2a 00 	jmp	0x54	; 0x54 <__ctors_end>
       4:	0c 94 47 00 	jmp	0x8e	; 0x8e <__bad_interrupt>
       8:	0c 94 47 00 	jmp	0x8e	; 0x8e <__bad_interrupt>
       c:	0c 94 47 00 	jmp	0x8e	; 0x8e <__bad_interrupt>
      10:	0c 94 47 00 	jmp	0x8e	; 0x8e <__bad_interrupt>
      14:	0c 94 47 00 	jmp	0x8e	; 0x8e <__bad_interrupt>
      18:	0c 94 47 00 	jmp	0x8e	; 0x8e <__bad_interrupt>
      1c:	0c 94 47 00 	jmp	0x8e	; 0x8e <__bad_interrupt>
      20:	0c 94 47 00 	jmp	0x8e	; 0x8e <__bad_interrupt>
      24:	0c 94 47 00 	jmp	0x8e	; 0x8e <__bad_interrupt>
      28:	0c 94 47 00 	jmp	0x8e	; 0x8e <__bad_interrupt>
      2c:	0c 94 47 00 	jmp	0x8e	; 0x8e <__bad_interrupt>
      30:	0c 94 47 00 	jmp	0x8e	; 0x8e <__bad_interrupt>
      34:	0c 94 47 00 	jmp	0x8e	; 0x8e <__bad_interrupt>
      38:	0c 94 47 00 	jmp	0x8e	; 0x8e <__bad_interrupt>
      3c:	0c 94 47 00 	jmp	0x8e	; 0x8e <__bad_interrupt>
      40:	0c 94 47 00 	jmp	0x8e	; 0x8e <__bad_interrupt>
      44:	0c 94 47 00 	jmp	0x8e	; 0x8e <__bad_interrupt>
      48:	0c 94 47 00 	jmp	0x8e	; 0x8e <__bad_interrupt>
      4c:	0c 94 47 00 	jmp	0x8e	; 0x8e <__bad_interrupt>
      50:	0c 94 47 00 	jmp	0x8e	; 0x8e <__bad_interrupt>

00000054 <__ctors_end>:
      54:	11 24       	eor	r1, r1
      56:	1f be       	out	0x3f, r1	; 63
      58:	cf e5       	ldi	r28, 0x5F	; 95
      5a:	d8 e0       	ldi	r29, 0x08	; 8
      5c:	de bf       	out	0x3e, r29	; 62
      5e:	cd bf       	out	0x3d, r28	; 61

00000060 <__do_copy_data>:
      60:	13 e0       	ldi	r17, 0x03	; 3
      62:	a0 e6       	ldi	r26, 0x60	; 96
      64:	b0 e0       	ldi	r27, 0x00	; 0
      66:	ee e9       	ldi	r30, 0x9E	; 158
      68:	fd e1       	ldi	r31, 0x1D	; 29
      6a:	02 c0       	rjmp	.+4      	; 0x70 <__do_copy_data+0x10>
      6c:	05 90       	lpm	r0, Z+
      6e:	0d 92       	st	X+, r0
      70:	a0 31       	cpi	r26, 0x10	; 16
      72:	b1 07       	cpc	r27, r17
      74:	d9 f7       	brne	.-10     	; 0x6c <__do_copy_data+0xc>

00000076 <__do_clear_bss>:
      76:	13 e0       	ldi	r17, 0x03	; 3
      78:	a0 e1       	ldi	r26, 0x10	; 16
      7a:	b3 e0       	ldi	r27, 0x03	; 3
      7c:	01 c0       	rjmp	.+2      	; 0x80 <.do_clear_bss_start>

0000007e <.do_clear_bss_loop>:
      7e:	1d 92       	st	X+, r1

00000080 <.do_clear_bss_start>:
      80:	ac 31       	cpi	r26, 0x1C	; 28
      82:	b1 07       	cpc	r27, r17
      84:	e1 f7       	brne	.-8      	; 0x7e <.do_clear_bss_loop>
      86:	0e 94 8c 07 	call	0xf18	; 0xf18 <main>
      8a:	0c 94 cd 0e 	jmp	0x1d9a	; 0x1d9a <_exit>

0000008e <__bad_interrupt>:
      8e:	0c 94 00 00 	jmp	0	; 0x0 <__vectors>

00000092 <lcd_data_write>:
      92:	95 e0       	ldi	r25, 0x05	; 5
      94:	98 bb       	out	0x18, r25	; 24
      96:	82 bb       	out	0x12, r24	; 18
      98:	8f e9       	ldi	r24, 0x9F	; 159
      9a:	9f e0       	ldi	r25, 0x0F	; 15
      9c:	01 97       	sbiw	r24, 0x01	; 1
      9e:	f1 f7       	brne	.-4      	; 0x9c <lcd_data_write+0xa>
      a0:	00 c0       	rjmp	.+0      	; 0xa2 <lcd_data_write+0x10>
      a2:	00 00       	nop
      a4:	81 e0       	ldi	r24, 0x01	; 1
      a6:	88 bb       	out	0x18, r24	; 24
      a8:	8f e9       	ldi	r24, 0x9F	; 159
      aa:	9f e0       	ldi	r25, 0x0F	; 15
      ac:	01 97       	sbiw	r24, 0x01	; 1
      ae:	f1 f7       	brne	.-4      	; 0xac <lcd_data_write+0x1a>
      b0:	00 c0       	rjmp	.+0      	; 0xb2 <lcd_data_write+0x20>
      b2:	00 00       	nop
      b4:	08 95       	ret

000000b6 <lcd_command_write>:
      b6:	94 e0       	ldi	r25, 0x04	; 4
      b8:	98 bb       	out	0x18, r25	; 24
      ba:	82 bb       	out	0x12, r24	; 18
      bc:	8f e9       	ldi	r24, 0x9F	; 159
      be:	9f e0       	ldi	r25, 0x0F	; 15
      c0:	01 97       	sbiw	r24, 0x01	; 1
      c2:	f1 f7       	brne	.-4      	; 0xc0 <lcd_command_write+0xa>
      c4:	00 c0       	rjmp	.+0      	; 0xc6 <lcd_command_write+0x10>
      c6:	00 00       	nop
      c8:	18 ba       	out	0x18, r1	; 24
      ca:	8f e9       	ldi	r24, 0x9F	; 159
      cc:	9f e0       	ldi	r25, 0x0F	; 15
      ce:	01 97       	sbiw	r24, 0x01	; 1
      d0:	f1 f7       	brne	.-4      	; 0xce <lcd_command_write+0x18>
      d2:	00 c0       	rjmp	.+0      	; 0xd4 <lcd_command_write+0x1e>
      d4:	00 00       	nop
      d6:	08 95       	ret

000000d8 <lcd_init>:
      d8:	88 e3       	ldi	r24, 0x38	; 56
      da:	0e 94 5b 00 	call	0xb6	; 0xb6 <lcd_command_write>
      de:	81 e0       	ldi	r24, 0x01	; 1
      e0:	0e 94 5b 00 	call	0xb6	; 0xb6 <lcd_command_write>
      e4:	86 e0       	ldi	r24, 0x06	; 6
      e6:	0e 94 5b 00 	call	0xb6	; 0xb6 <lcd_command_write>
      ea:	8e e0       	ldi	r24, 0x0E	; 14
      ec:	0c 94 5b 00 	jmp	0xb6	; 0xb6 <lcd_command_write>

000000f0 <lcd_string_write>:
      f0:	cf 93       	push	r28
      f2:	df 93       	push	r29
      f4:	ec 01       	movw	r28, r24
      f6:	89 91       	ld	r24, Y+
      f8:	88 23       	and	r24, r24
      fa:	19 f0       	breq	.+6      	; 0x102 <lcd_string_write+0x12>
      fc:	0e 94 49 00 	call	0x92	; 0x92 <lcd_data_write>
     100:	fa cf       	rjmp	.-12     	; 0xf6 <lcd_string_write+0x6>
     102:	df 91       	pop	r29
     104:	cf 91       	pop	r28
     106:	08 95       	ret

00000108 <lcd_number_write>:
     108:	cf 93       	push	r28
     10a:	df 93       	push	r29
     10c:	46 2f       	mov	r20, r22
     10e:	50 e0       	ldi	r21, 0x00	; 0
     110:	66 ea       	ldi	r22, 0xA6	; 166
     112:	70 e0       	ldi	r23, 0x00	; 0
     114:	0e 94 74 0e 	call	0x1ce8	; 0x1ce8 <itoa>
     118:	c6 ea       	ldi	r28, 0xA6	; 166
     11a:	d0 e0       	ldi	r29, 0x00	; 0
     11c:	89 91       	ld	r24, Y+
     11e:	88 23       	and	r24, r24
     120:	19 f0       	breq	.+6      	; 0x128 <lcd_number_write+0x20>
     122:	0e 94 49 00 	call	0x92	; 0x92 <lcd_data_write>
     126:	fa cf       	rjmp	.-12     	; 0x11c <lcd_number_write+0x14>
     128:	df 91       	pop	r29
     12a:	cf 91       	pop	r28
     12c:	08 95       	ret

0000012e <lcd_cursor>:
     12e:	98 2f       	mov	r25, r24
     130:	86 2f       	mov	r24, r22
     132:	92 30       	cpi	r25, 0x02	; 2
     134:	59 f0       	breq	.+22     	; 0x14c <lcd_cursor+0x1e>
     136:	18 f4       	brcc	.+6      	; 0x13e <lcd_cursor+0x10>
     138:	91 30       	cpi	r25, 0x01	; 1
     13a:	31 f0       	breq	.+12     	; 0x148 <lcd_cursor+0x1a>
     13c:	08 95       	ret
     13e:	93 30       	cpi	r25, 0x03	; 3
     140:	39 f0       	breq	.+14     	; 0x150 <lcd_cursor+0x22>
     142:	94 30       	cpi	r25, 0x04	; 4
     144:	39 f0       	breq	.+14     	; 0x154 <lcd_cursor+0x26>
     146:	08 95       	ret
     148:	81 58       	subi	r24, 0x81	; 129
     14a:	05 c0       	rjmp	.+10     	; 0x156 <lcd_cursor+0x28>
     14c:	81 54       	subi	r24, 0x41	; 65
     14e:	03 c0       	rjmp	.+6      	; 0x156 <lcd_cursor+0x28>
     150:	8d 56       	subi	r24, 0x6D	; 109
     152:	01 c0       	rjmp	.+2      	; 0x156 <lcd_cursor+0x28>
     154:	8d 52       	subi	r24, 0x2D	; 45
     156:	0c 94 5b 00 	jmp	0xb6	; 0xb6 <lcd_command_write>

0000015a <twi_init>:
     15a:	11 b8       	out	0x01, r1	; 1
     15c:	82 e0       	ldi	r24, 0x02	; 2
     15e:	80 b9       	out	0x00, r24	; 0
     160:	08 95       	ret

00000162 <twi_send_start>:
     162:	84 ea       	ldi	r24, 0xA4	; 164
     164:	86 bf       	out	0x36, r24	; 54
     166:	06 b6       	in	r0, 0x36	; 54
     168:	07 fe       	sbrs	r0, 7
     16a:	fd cf       	rjmp	.-6      	; 0x166 <twi_send_start+0x4>
     16c:	81 b1       	in	r24, 0x01	; 1
     16e:	88 7f       	andi	r24, 0xF8	; 248
     170:	08 95       	ret

00000172 <twi_send_repeated_start>:
     172:	84 ea       	ldi	r24, 0xA4	; 164
     174:	86 bf       	out	0x36, r24	; 54
     176:	06 b6       	in	r0, 0x36	; 54
     178:	07 fe       	sbrs	r0, 7
     17a:	fd cf       	rjmp	.-6      	; 0x176 <twi_send_repeated_start+0x4>
     17c:	81 b1       	in	r24, 0x01	; 1
     17e:	88 7f       	andi	r24, 0xF8	; 248
     180:	08 95       	ret

00000182 <twi_send_address_rw>:
     182:	83 b9       	out	0x03, r24	; 3
     184:	84 e8       	ldi	r24, 0x84	; 132
     186:	86 bf       	out	0x36, r24	; 54
     188:	06 b6       	in	r0, 0x36	; 54
     18a:	07 fe       	sbrs	r0, 7
     18c:	fd cf       	rjmp	.-6      	; 0x188 <twi_send_address_rw+0x6>
     18e:	81 b1       	in	r24, 0x01	; 1
     190:	88 7f       	andi	r24, 0xF8	; 248
     192:	08 95       	ret

00000194 <twi_master_send_data>:
     194:	83 b9       	out	0x03, r24	; 3
     196:	84 e8       	ldi	r24, 0x84	; 132
     198:	86 bf       	out	0x36, r24	; 54
     19a:	06 b6       	in	r0, 0x36	; 54
     19c:	07 fe       	sbrs	r0, 7
     19e:	fd cf       	rjmp	.-6      	; 0x19a <twi_master_send_data+0x6>
     1a0:	81 b1       	in	r24, 0x01	; 1
     1a2:	88 7f       	andi	r24, 0xF8	; 248
     1a4:	08 95       	ret

000001a6 <twi_master_send_string>:
     1a6:	34 e8       	ldi	r19, 0x84	; 132
     1a8:	fc 01       	movw	r30, r24
     1aa:	21 91       	ld	r18, Z+
     1ac:	cf 01       	movw	r24, r30
     1ae:	22 23       	and	r18, r18
     1b0:	51 f0       	breq	.+20     	; 0x1c6 <twi_master_send_string+0x20>
     1b2:	23 b9       	out	0x03, r18	; 3
     1b4:	36 bf       	out	0x36, r19	; 54
     1b6:	06 b6       	in	r0, 0x36	; 54
     1b8:	07 fe       	sbrs	r0, 7
     1ba:	fd cf       	rjmp	.-6      	; 0x1b6 <twi_master_send_string+0x10>
     1bc:	21 b1       	in	r18, 0x01	; 1
     1be:	28 7f       	andi	r18, 0xF8	; 248
     1c0:	28 32       	cpi	r18, 0x28	; 40
     1c2:	e1 f7       	brne	.-8      	; 0x1bc <twi_master_send_string+0x16>
     1c4:	f1 cf       	rjmp	.-30     	; 0x1a8 <twi_master_send_string+0x2>
     1c6:	81 b1       	in	r24, 0x01	; 1
     1c8:	88 7f       	andi	r24, 0xF8	; 248
     1ca:	08 95       	ret

000001cc <twi_master_receive_data>:
     1cc:	84 ec       	ldi	r24, 0xC4	; 196
     1ce:	86 bf       	out	0x36, r24	; 54
     1d0:	06 b6       	in	r0, 0x36	; 54
     1d2:	07 fe       	sbrs	r0, 7
     1d4:	fd cf       	rjmp	.-6      	; 0x1d0 <twi_master_receive_data+0x4>
     1d6:	83 b1       	in	r24, 0x03	; 3
     1d8:	08 95       	ret

000001da <twi_master_receive_last_data>:
     1da:	84 e8       	ldi	r24, 0x84	; 132
     1dc:	86 bf       	out	0x36, r24	; 54
     1de:	06 b6       	in	r0, 0x36	; 54
     1e0:	07 fe       	sbrs	r0, 7
     1e2:	fd cf       	rjmp	.-6      	; 0x1de <twi_master_receive_last_data+0x4>
     1e4:	83 b1       	in	r24, 0x03	; 3
     1e6:	08 95       	ret

000001e8 <twi_master_receive_string>:
     1e8:	cf 93       	push	r28
     1ea:	df 93       	push	r29
     1ec:	26 2f       	mov	r18, r22
     1ee:	fb 01       	movw	r30, r22
     1f0:	34 ec       	ldi	r19, 0xC4	; 196
     1f2:	9e 2f       	mov	r25, r30
     1f4:	92 1b       	sub	r25, r18
     1f6:	98 17       	cp	r25, r24
     1f8:	58 f4       	brcc	.+22     	; 0x210 <twi_master_receive_string+0x28>
     1fa:	36 bf       	out	0x36, r19	; 54
     1fc:	06 b6       	in	r0, 0x36	; 54
     1fe:	07 fe       	sbrs	r0, 7
     200:	fd cf       	rjmp	.-6      	; 0x1fc <twi_master_receive_string+0x14>
     202:	93 b1       	in	r25, 0x03	; 3
     204:	91 93       	st	Z+, r25
     206:	91 b1       	in	r25, 0x01	; 1
     208:	98 7f       	andi	r25, 0xF8	; 248
     20a:	90 35       	cpi	r25, 0x50	; 80
     20c:	e1 f7       	brne	.-8      	; 0x206 <twi_master_receive_string+0x1e>
     20e:	f1 cf       	rjmp	.-30     	; 0x1f2 <twi_master_receive_string+0xa>
     210:	eb 01       	movw	r28, r22
     212:	c8 0f       	add	r28, r24
     214:	d1 1d       	adc	r29, r1
     216:	0e 94 ed 00 	call	0x1da	; 0x1da <twi_master_receive_last_data>
     21a:	18 82       	st	Y, r1
     21c:	df 91       	pop	r29
     21e:	cf 91       	pop	r28
     220:	08 95       	ret

00000222 <twi_send_stop>:
     222:	84 e9       	ldi	r24, 0x94	; 148
     224:	86 bf       	out	0x36, r24	; 54
     226:	06 b6       	in	r0, 0x36	; 54
     228:	04 fc       	sbrc	r0, 4
     22a:	fd cf       	rjmp	.-6      	; 0x226 <twi_send_stop+0x4>
     22c:	08 95       	ret

0000022e <ds1307_read_second>:
     22e:	0e 94 b1 00 	call	0x162	; 0x162 <twi_send_start>
     232:	80 ed       	ldi	r24, 0xD0	; 208
     234:	0e 94 c1 00 	call	0x182	; 0x182 <twi_send_address_rw>
     238:	80 e0       	ldi	r24, 0x00	; 0
     23a:	0e 94 ca 00 	call	0x194	; 0x194 <twi_master_send_data>
     23e:	0e 94 b9 00 	call	0x172	; 0x172 <twi_send_repeated_start>
     242:	81 ed       	ldi	r24, 0xD1	; 209
     244:	0e 94 c1 00 	call	0x182	; 0x182 <twi_send_address_rw>
     248:	0c 94 ed 00 	jmp	0x1da	; 0x1da <twi_master_receive_last_data>

0000024c <ds1307_read_minute>:
     24c:	0e 94 b1 00 	call	0x162	; 0x162 <twi_send_start>
     250:	80 ed       	ldi	r24, 0xD0	; 208
     252:	0e 94 c1 00 	call	0x182	; 0x182 <twi_send_address_rw>
     256:	81 e0       	ldi	r24, 0x01	; 1
     258:	0e 94 ca 00 	call	0x194	; 0x194 <twi_master_send_data>
     25c:	0e 94 b9 00 	call	0x172	; 0x172 <twi_send_repeated_start>
     260:	81 ed       	ldi	r24, 0xD1	; 209
     262:	0e 94 c1 00 	call	0x182	; 0x182 <twi_send_address_rw>
     266:	0c 94 ed 00 	jmp	0x1da	; 0x1da <twi_master_receive_last_data>

0000026a <ds1307_read_hour>:
     26a:	0e 94 b1 00 	call	0x162	; 0x162 <twi_send_start>
     26e:	80 ed       	ldi	r24, 0xD0	; 208
     270:	0e 94 c1 00 	call	0x182	; 0x182 <twi_send_address_rw>
     274:	82 e0       	ldi	r24, 0x02	; 2
     276:	0e 94 ca 00 	call	0x194	; 0x194 <twi_master_send_data>
     27a:	0e 94 b9 00 	call	0x172	; 0x172 <twi_send_repeated_start>
     27e:	81 ed       	ldi	r24, 0xD1	; 209
     280:	0e 94 c1 00 	call	0x182	; 0x182 <twi_send_address_rw>
     284:	0c 94 ed 00 	jmp	0x1da	; 0x1da <twi_master_receive_last_data>

00000288 <ds1307_read_day>:
     288:	0e 94 b1 00 	call	0x162	; 0x162 <twi_send_start>
     28c:	80 ed       	ldi	r24, 0xD0	; 208
     28e:	0e 94 c1 00 	call	0x182	; 0x182 <twi_send_address_rw>
     292:	83 e0       	ldi	r24, 0x03	; 3
     294:	0e 94 ca 00 	call	0x194	; 0x194 <twi_master_send_data>
     298:	0e 94 b9 00 	call	0x172	; 0x172 <twi_send_repeated_start>
     29c:	81 ed       	ldi	r24, 0xD1	; 209
     29e:	0e 94 c1 00 	call	0x182	; 0x182 <twi_send_address_rw>
     2a2:	0c 94 ed 00 	jmp	0x1da	; 0x1da <twi_master_receive_last_data>

000002a6 <ds1307_read_date>:
     2a6:	0e 94 b1 00 	call	0x162	; 0x162 <twi_send_start>
     2aa:	80 ed       	ldi	r24, 0xD0	; 208
     2ac:	0e 94 c1 00 	call	0x182	; 0x182 <twi_send_address_rw>
     2b0:	84 e0       	ldi	r24, 0x04	; 4
     2b2:	0e 94 ca 00 	call	0x194	; 0x194 <twi_master_send_data>
     2b6:	0e 94 b9 00 	call	0x172	; 0x172 <twi_send_repeated_start>
     2ba:	81 ed       	ldi	r24, 0xD1	; 209
     2bc:	0e 94 c1 00 	call	0x182	; 0x182 <twi_send_address_rw>
     2c0:	0c 94 ed 00 	jmp	0x1da	; 0x1da <twi_master_receive_last_data>

000002c4 <ds1307_read_month>:
     2c4:	0e 94 b1 00 	call	0x162	; 0x162 <twi_send_start>
     2c8:	80 ed       	ldi	r24, 0xD0	; 208
     2ca:	0e 94 c1 00 	call	0x182	; 0x182 <twi_send_address_rw>
     2ce:	85 e0       	ldi	r24, 0x05	; 5
     2d0:	0e 94 ca 00 	call	0x194	; 0x194 <twi_master_send_data>
     2d4:	0e 94 b9 00 	call	0x172	; 0x172 <twi_send_repeated_start>
     2d8:	81 ed       	ldi	r24, 0xD1	; 209
     2da:	0e 94 c1 00 	call	0x182	; 0x182 <twi_send_address_rw>
     2de:	0c 94 ed 00 	jmp	0x1da	; 0x1da <twi_master_receive_last_data>

000002e2 <ds1307_read_year>:
     2e2:	0e 94 b1 00 	call	0x162	; 0x162 <twi_send_start>
     2e6:	80 ed       	ldi	r24, 0xD0	; 208
     2e8:	0e 94 c1 00 	call	0x182	; 0x182 <twi_send_address_rw>
     2ec:	86 e0       	ldi	r24, 0x06	; 6
     2ee:	0e 94 ca 00 	call	0x194	; 0x194 <twi_master_send_data>
     2f2:	0e 94 b9 00 	call	0x172	; 0x172 <twi_send_repeated_start>
     2f6:	81 ed       	ldi	r24, 0xD1	; 209
     2f8:	0e 94 c1 00 	call	0x182	; 0x182 <twi_send_address_rw>
     2fc:	0c 94 ed 00 	jmp	0x1da	; 0x1da <twi_master_receive_last_data>

00000300 <convert_decimal_to_bcd>:
     300:	6a e0       	ldi	r22, 0x0A	; 10
     302:	0e 94 1e 0d 	call	0x1a3c	; 0x1a3c <__udivmodqi4>
     306:	20 e1       	ldi	r18, 0x10	; 16
     308:	82 9f       	mul	r24, r18
     30a:	90 0d       	add	r25, r0
     30c:	11 24       	eor	r1, r1
     30e:	89 2f       	mov	r24, r25
     310:	08 95       	ret

00000312 <ds1307_second_write>:
     312:	cf 93       	push	r28
     314:	c8 2f       	mov	r28, r24
     316:	0e 94 b1 00 	call	0x162	; 0x162 <twi_send_start>
     31a:	80 ed       	ldi	r24, 0xD0	; 208
     31c:	0e 94 c1 00 	call	0x182	; 0x182 <twi_send_address_rw>
     320:	80 e0       	ldi	r24, 0x00	; 0
     322:	0e 94 ca 00 	call	0x194	; 0x194 <twi_master_send_data>
     326:	8c 2f       	mov	r24, r28
     328:	0e 94 80 01 	call	0x300	; 0x300 <convert_decimal_to_bcd>
     32c:	0e 94 ca 00 	call	0x194	; 0x194 <twi_master_send_data>
     330:	cf 91       	pop	r28
     332:	0c 94 11 01 	jmp	0x222	; 0x222 <twi_send_stop>

00000336 <ds1307_minute_write>:
     336:	cf 93       	push	r28
     338:	c8 2f       	mov	r28, r24
     33a:	0e 94 b1 00 	call	0x162	; 0x162 <twi_send_start>
     33e:	80 ed       	ldi	r24, 0xD0	; 208
     340:	0e 94 c1 00 	call	0x182	; 0x182 <twi_send_address_rw>
     344:	81 e0       	ldi	r24, 0x01	; 1
     346:	0e 94 ca 00 	call	0x194	; 0x194 <twi_master_send_data>
     34a:	8c 2f       	mov	r24, r28
     34c:	0e 94 80 01 	call	0x300	; 0x300 <convert_decimal_to_bcd>
     350:	0e 94 ca 00 	call	0x194	; 0x194 <twi_master_send_data>
     354:	cf 91       	pop	r28
     356:	0c 94 11 01 	jmp	0x222	; 0x222 <twi_send_stop>

0000035a <ds1307_hour_write>:
     35a:	0f 93       	push	r16
     35c:	1f 93       	push	r17
     35e:	cf 93       	push	r28
     360:	df 93       	push	r29
     362:	1f 92       	push	r1
     364:	cd b7       	in	r28, 0x3d	; 61
     366:	de b7       	in	r29, 0x3e	; 62
     368:	18 2f       	mov	r17, r24
     36a:	04 2f       	mov	r16, r20
     36c:	69 83       	std	Y+1, r22	; 0x01
     36e:	0e 94 b1 00 	call	0x162	; 0x162 <twi_send_start>
     372:	80 ed       	ldi	r24, 0xD0	; 208
     374:	0e 94 c1 00 	call	0x182	; 0x182 <twi_send_address_rw>
     378:	82 e0       	ldi	r24, 0x02	; 2
     37a:	0e 94 ca 00 	call	0x194	; 0x194 <twi_master_send_data>
     37e:	69 81       	ldd	r22, Y+1	; 0x01
     380:	81 2f       	mov	r24, r17
     382:	61 30       	cpi	r22, 0x01	; 1
     384:	49 f4       	brne	.+18     	; 0x398 <ds1307_hour_write+0x3e>
     386:	0e 94 80 01 	call	0x300	; 0x300 <convert_decimal_to_bcd>
     38a:	90 e2       	ldi	r25, 0x20	; 32
     38c:	09 9f       	mul	r16, r25
     38e:	a0 01       	movw	r20, r0
     390:	11 24       	eor	r1, r1
     392:	40 64       	ori	r20, 0x40	; 64
     394:	84 2b       	or	r24, r20
     396:	02 c0       	rjmp	.+4      	; 0x39c <ds1307_hour_write+0x42>
     398:	0e 94 80 01 	call	0x300	; 0x300 <convert_decimal_to_bcd>
     39c:	0e 94 ca 00 	call	0x194	; 0x194 <twi_master_send_data>
     3a0:	0f 90       	pop	r0
     3a2:	df 91       	pop	r29
     3a4:	cf 91       	pop	r28
     3a6:	1f 91       	pop	r17
     3a8:	0f 91       	pop	r16
     3aa:	0c 94 11 01 	jmp	0x222	; 0x222 <twi_send_stop>

000003ae <ds1307_day_write>:
     3ae:	cf 93       	push	r28
     3b0:	c8 2f       	mov	r28, r24
     3b2:	0e 94 b1 00 	call	0x162	; 0x162 <twi_send_start>
     3b6:	80 ed       	ldi	r24, 0xD0	; 208
     3b8:	0e 94 c1 00 	call	0x182	; 0x182 <twi_send_address_rw>
     3bc:	83 e0       	ldi	r24, 0x03	; 3
     3be:	0e 94 ca 00 	call	0x194	; 0x194 <twi_master_send_data>
     3c2:	8c 2f       	mov	r24, r28
     3c4:	0e 94 80 01 	call	0x300	; 0x300 <convert_decimal_to_bcd>
     3c8:	0e 94 ca 00 	call	0x194	; 0x194 <twi_master_send_data>
     3cc:	cf 91       	pop	r28
     3ce:	0c 94 11 01 	jmp	0x222	; 0x222 <twi_send_stop>

000003d2 <ds1307_date_write>:
     3d2:	cf 93       	push	r28
     3d4:	c8 2f       	mov	r28, r24
     3d6:	0e 94 b1 00 	call	0x162	; 0x162 <twi_send_start>
     3da:	80 ed       	ldi	r24, 0xD0	; 208
     3dc:	0e 94 c1 00 	call	0x182	; 0x182 <twi_send_address_rw>
     3e0:	84 e0       	ldi	r24, 0x04	; 4
     3e2:	0e 94 ca 00 	call	0x194	; 0x194 <twi_master_send_data>
     3e6:	8c 2f       	mov	r24, r28
     3e8:	0e 94 80 01 	call	0x300	; 0x300 <convert_decimal_to_bcd>
     3ec:	0e 94 ca 00 	call	0x194	; 0x194 <twi_master_send_data>
     3f0:	cf 91       	pop	r28
     3f2:	0c 94 11 01 	jmp	0x222	; 0x222 <twi_send_stop>

000003f6 <ds1307_month_write>:
     3f6:	cf 93       	push	r28
     3f8:	c8 2f       	mov	r28, r24
     3fa:	0e 94 b1 00 	call	0x162	; 0x162 <twi_send_start>
     3fe:	80 ed       	ldi	r24, 0xD0	; 208
     400:	0e 94 c1 00 	call	0x182	; 0x182 <twi_send_address_rw>
     404:	85 e0       	ldi	r24, 0x05	; 5
     406:	0e 94 ca 00 	call	0x194	; 0x194 <twi_master_send_data>
     40a:	8c 2f       	mov	r24, r28
     40c:	0e 94 80 01 	call	0x300	; 0x300 <convert_decimal_to_bcd>
     410:	0e 94 ca 00 	call	0x194	; 0x194 <twi_master_send_data>
     414:	cf 91       	pop	r28
     416:	0c 94 11 01 	jmp	0x222	; 0x222 <twi_send_stop>

0000041a <ds1307_year_write>:
     41a:	cf 93       	push	r28
     41c:	c8 2f       	mov	r28, r24
     41e:	0e 94 b1 00 	call	0x162	; 0x162 <twi_send_start>
     422:	80 ed       	ldi	r24, 0xD0	; 208
     424:	0e 94 c1 00 	call	0x182	; 0x182 <twi_send_address_rw>
     428:	86 e0       	ldi	r24, 0x06	; 6
     42a:	0e 94 ca 00 	call	0x194	; 0x194 <twi_master_send_data>
     42e:	8c 2f       	mov	r24, r28
     430:	0e 94 80 01 	call	0x300	; 0x300 <convert_decimal_to_bcd>
     434:	0e 94 ca 00 	call	0x194	; 0x194 <twi_master_send_data>
     438:	cf 91       	pop	r28
     43a:	0c 94 11 01 	jmp	0x222	; 0x222 <twi_send_stop>

0000043e <convert_bcd_to_decimal>:
     43e:	98 2f       	mov	r25, r24
     440:	92 95       	swap	r25
     442:	9f 70       	andi	r25, 0x0F	; 15
     444:	8f 70       	andi	r24, 0x0F	; 15
     446:	2a e0       	ldi	r18, 0x0A	; 10
     448:	92 9f       	mul	r25, r18
     44a:	80 0d       	add	r24, r0
     44c:	11 24       	eor	r1, r1
     44e:	08 95       	ret

00000450 <display_time>:
     450:	0f 93       	push	r16
     452:	1f 93       	push	r17
     454:	cf 93       	push	r28
     456:	df 93       	push	r29
     458:	cd b7       	in	r28, 0x3d	; 61
     45a:	de b7       	in	r29, 0x3e	; 62
     45c:	2e 97       	sbiw	r28, 0x0e	; 14
     45e:	0f b6       	in	r0, 0x3f	; 63
     460:	f8 94       	cli
     462:	de bf       	out	0x3e, r29	; 62
     464:	0f be       	out	0x3f, r0	; 63
     466:	cd bf       	out	0x3d, r28	; 61
     468:	8e e0       	ldi	r24, 0x0E	; 14
     46a:	e8 e6       	ldi	r30, 0x68	; 104
     46c:	f0 e0       	ldi	r31, 0x00	; 0
     46e:	de 01       	movw	r26, r28
     470:	11 96       	adiw	r26, 0x01	; 1
     472:	01 90       	ld	r0, Z+
     474:	0d 92       	st	X+, r0
     476:	8a 95       	dec	r24
     478:	e1 f7       	brne	.-8      	; 0x472 <display_time+0x22>
     47a:	0e 94 35 01 	call	0x26a	; 0x26a <ds1307_read_hour>
     47e:	0e 94 1f 02 	call	0x43e	; 0x43e <convert_bcd_to_decimal>
     482:	80 93 1a 03 	sts	0x031A, r24
     486:	0e 94 26 01 	call	0x24c	; 0x24c <ds1307_read_minute>
     48a:	0e 94 1f 02 	call	0x43e	; 0x43e <convert_bcd_to_decimal>
     48e:	80 93 18 03 	sts	0x0318, r24
     492:	0e 94 17 01 	call	0x22e	; 0x22e <ds1307_read_second>
     496:	0e 94 1f 02 	call	0x43e	; 0x43e <convert_bcd_to_decimal>
     49a:	80 93 10 03 	sts	0x0310, r24
     49e:	0e 94 44 01 	call	0x288	; 0x288 <ds1307_read_day>
     4a2:	0e 94 1f 02 	call	0x43e	; 0x43e <convert_bcd_to_decimal>
     4a6:	08 2f       	mov	r16, r24
     4a8:	10 e0       	ldi	r17, 0x00	; 0
     4aa:	0e 94 53 01 	call	0x2a6	; 0x2a6 <ds1307_read_date>
     4ae:	0e 94 1f 02 	call	0x43e	; 0x43e <convert_bcd_to_decimal>
     4b2:	80 93 1b 03 	sts	0x031B, r24
     4b6:	0e 94 62 01 	call	0x2c4	; 0x2c4 <ds1307_read_month>
     4ba:	0e 94 1f 02 	call	0x43e	; 0x43e <convert_bcd_to_decimal>
     4be:	80 93 15 03 	sts	0x0315, r24
     4c2:	0e 94 71 01 	call	0x2e2	; 0x2e2 <ds1307_read_year>
     4c6:	0e 94 1f 02 	call	0x43e	; 0x43e <convert_bcd_to_decimal>
     4ca:	80 93 19 03 	sts	0x0319, r24
     4ce:	80 91 1b 03 	lds	r24, 0x031B
     4d2:	8a 30       	cpi	r24, 0x0A	; 10
     4d4:	80 f4       	brcc	.+32     	; 0x4f6 <display_time+0xa6>
     4d6:	82 e8       	ldi	r24, 0x82	; 130
     4d8:	0e 94 5b 00 	call	0xb6	; 0xb6 <lcd_command_write>
     4dc:	8a ea       	ldi	r24, 0xAA	; 170
     4de:	90 e0       	ldi	r25, 0x00	; 0
     4e0:	0e 94 78 00 	call	0xf0	; 0xf0 <lcd_string_write>
     4e4:	83 e8       	ldi	r24, 0x83	; 131
     4e6:	0e 94 5b 00 	call	0xb6	; 0xb6 <lcd_command_write>
     4ea:	80 91 1b 03 	lds	r24, 0x031B
     4ee:	6a e0       	ldi	r22, 0x0A	; 10
     4f0:	90 e0       	ldi	r25, 0x00	; 0
     4f2:	0e 94 84 00 	call	0x108	; 0x108 <lcd_number_write>
     4f6:	80 91 1b 03 	lds	r24, 0x031B
     4fa:	8a 30       	cpi	r24, 0x0A	; 10
     4fc:	48 f0       	brcs	.+18     	; 0x510 <display_time+0xc0>
     4fe:	82 e8       	ldi	r24, 0x82	; 130
     500:	0e 94 5b 00 	call	0xb6	; 0xb6 <lcd_command_write>
     504:	80 91 1b 03 	lds	r24, 0x031B
     508:	6a e0       	ldi	r22, 0x0A	; 10
     50a:	90 e0       	ldi	r25, 0x00	; 0
     50c:	0e 94 84 00 	call	0x108	; 0x108 <lcd_number_write>
     510:	80 91 15 03 	lds	r24, 0x0315
     514:	8a 30       	cpi	r24, 0x0A	; 10
     516:	80 f4       	brcc	.+32     	; 0x538 <display_time+0xe8>
     518:	85 e8       	ldi	r24, 0x85	; 133
     51a:	0e 94 5b 00 	call	0xb6	; 0xb6 <lcd_command_write>
     51e:	8a ea       	ldi	r24, 0xAA	; 170
     520:	90 e0       	ldi	r25, 0x00	; 0
     522:	0e 94 78 00 	call	0xf0	; 0xf0 <lcd_string_write>
     526:	86 e8       	ldi	r24, 0x86	; 134
     528:	0e 94 5b 00 	call	0xb6	; 0xb6 <lcd_command_write>
     52c:	80 91 15 03 	lds	r24, 0x0315
     530:	6a e0       	ldi	r22, 0x0A	; 10
     532:	90 e0       	ldi	r25, 0x00	; 0
     534:	0e 94 84 00 	call	0x108	; 0x108 <lcd_number_write>
     538:	80 91 15 03 	lds	r24, 0x0315
     53c:	8a 30       	cpi	r24, 0x0A	; 10
     53e:	48 f0       	brcs	.+18     	; 0x552 <display_time+0x102>
     540:	85 e8       	ldi	r24, 0x85	; 133
     542:	0e 94 5b 00 	call	0xb6	; 0xb6 <lcd_command_write>
     546:	80 91 15 03 	lds	r24, 0x0315
     54a:	6a e0       	ldi	r22, 0x0A	; 10
     54c:	90 e0       	ldi	r25, 0x00	; 0
     54e:	0e 94 84 00 	call	0x108	; 0x108 <lcd_number_write>
     552:	80 91 19 03 	lds	r24, 0x0319
     556:	8a 30       	cpi	r24, 0x0A	; 10
     558:	80 f4       	brcc	.+32     	; 0x57a <display_time+0x12a>
     55a:	88 e8       	ldi	r24, 0x88	; 136
     55c:	0e 94 5b 00 	call	0xb6	; 0xb6 <lcd_command_write>
     560:	8a ea       	ldi	r24, 0xAA	; 170
     562:	90 e0       	ldi	r25, 0x00	; 0
     564:	0e 94 78 00 	call	0xf0	; 0xf0 <lcd_string_write>
     568:	89 e8       	ldi	r24, 0x89	; 137
     56a:	0e 94 5b 00 	call	0xb6	; 0xb6 <lcd_command_write>
     56e:	80 91 19 03 	lds	r24, 0x0319
     572:	6a e0       	ldi	r22, 0x0A	; 10
     574:	90 e0       	ldi	r25, 0x00	; 0
     576:	0e 94 84 00 	call	0x108	; 0x108 <lcd_number_write>
     57a:	80 91 19 03 	lds	r24, 0x0319
     57e:	8a 30       	cpi	r24, 0x0A	; 10
     580:	48 f0       	brcs	.+18     	; 0x594 <display_time+0x144>
     582:	88 e8       	ldi	r24, 0x88	; 136
     584:	0e 94 5b 00 	call	0xb6	; 0xb6 <lcd_command_write>
     588:	80 91 19 03 	lds	r24, 0x0319
     58c:	6a e0       	ldi	r22, 0x0A	; 10
     58e:	90 e0       	ldi	r25, 0x00	; 0
     590:	0e 94 84 00 	call	0x108	; 0x108 <lcd_number_write>
     594:	8c e8       	ldi	r24, 0x8C	; 140
     596:	0e 94 5b 00 	call	0xb6	; 0xb6 <lcd_command_write>
     59a:	f8 01       	movw	r30, r16
     59c:	31 97       	sbiw	r30, 0x01	; 1
     59e:	ee 0f       	add	r30, r30
     5a0:	ff 1f       	adc	r31, r31
     5a2:	81 e0       	ldi	r24, 0x01	; 1
     5a4:	90 e0       	ldi	r25, 0x00	; 0
     5a6:	8c 0f       	add	r24, r28
     5a8:	9d 1f       	adc	r25, r29
     5aa:	e8 0f       	add	r30, r24
     5ac:	f9 1f       	adc	r31, r25
     5ae:	80 81       	ld	r24, Z
     5b0:	91 81       	ldd	r25, Z+1	; 0x01
     5b2:	99 27       	eor	r25, r25
     5b4:	0e 94 78 00 	call	0xf0	; 0xf0 <lcd_string_write>
     5b8:	80 91 1a 03 	lds	r24, 0x031A
     5bc:	8a 30       	cpi	r24, 0x0A	; 10
     5be:	80 f4       	brcc	.+32     	; 0x5e0 <display_time+0x190>
     5c0:	82 ec       	ldi	r24, 0xC2	; 194
     5c2:	0e 94 5b 00 	call	0xb6	; 0xb6 <lcd_command_write>
     5c6:	8a ea       	ldi	r24, 0xAA	; 170
     5c8:	90 e0       	ldi	r25, 0x00	; 0
     5ca:	0e 94 78 00 	call	0xf0	; 0xf0 <lcd_string_write>
     5ce:	83 ec       	ldi	r24, 0xC3	; 195
     5d0:	0e 94 5b 00 	call	0xb6	; 0xb6 <lcd_command_write>
     5d4:	80 91 1a 03 	lds	r24, 0x031A
     5d8:	6a e0       	ldi	r22, 0x0A	; 10
     5da:	90 e0       	ldi	r25, 0x00	; 0
     5dc:	0e 94 84 00 	call	0x108	; 0x108 <lcd_number_write>
     5e0:	80 91 1a 03 	lds	r24, 0x031A
     5e4:	8a 30       	cpi	r24, 0x0A	; 10
     5e6:	48 f0       	brcs	.+18     	; 0x5fa <display_time+0x1aa>
     5e8:	82 ec       	ldi	r24, 0xC2	; 194
     5ea:	0e 94 5b 00 	call	0xb6	; 0xb6 <lcd_command_write>
     5ee:	80 91 1a 03 	lds	r24, 0x031A
     5f2:	6a e0       	ldi	r22, 0x0A	; 10
     5f4:	90 e0       	ldi	r25, 0x00	; 0
     5f6:	0e 94 84 00 	call	0x108	; 0x108 <lcd_number_write>
     5fa:	80 91 18 03 	lds	r24, 0x0318
     5fe:	8a 30       	cpi	r24, 0x0A	; 10
     600:	80 f4       	brcc	.+32     	; 0x622 <display_time+0x1d2>
     602:	85 ec       	ldi	r24, 0xC5	; 197
     604:	0e 94 5b 00 	call	0xb6	; 0xb6 <lcd_command_write>
     608:	8a ea       	ldi	r24, 0xAA	; 170
     60a:	90 e0       	ldi	r25, 0x00	; 0
     60c:	0e 94 78 00 	call	0xf0	; 0xf0 <lcd_string_write>
     610:	86 ec       	ldi	r24, 0xC6	; 198
     612:	0e 94 5b 00 	call	0xb6	; 0xb6 <lcd_command_write>
     616:	80 91 18 03 	lds	r24, 0x0318
     61a:	6a e0       	ldi	r22, 0x0A	; 10
     61c:	90 e0       	ldi	r25, 0x00	; 0
     61e:	0e 94 84 00 	call	0x108	; 0x108 <lcd_number_write>
     622:	80 91 18 03 	lds	r24, 0x0318
     626:	8a 30       	cpi	r24, 0x0A	; 10
     628:	48 f0       	brcs	.+18     	; 0x63c <display_time+0x1ec>
     62a:	85 ec       	ldi	r24, 0xC5	; 197
     62c:	0e 94 5b 00 	call	0xb6	; 0xb6 <lcd_command_write>
     630:	80 91 18 03 	lds	r24, 0x0318
     634:	6a e0       	ldi	r22, 0x0A	; 10
     636:	90 e0       	ldi	r25, 0x00	; 0
     638:	0e 94 84 00 	call	0x108	; 0x108 <lcd_number_write>
     63c:	80 91 10 03 	lds	r24, 0x0310
     640:	8a 30       	cpi	r24, 0x0A	; 10
     642:	80 f4       	brcc	.+32     	; 0x664 <display_time+0x214>
     644:	88 ec       	ldi	r24, 0xC8	; 200
     646:	0e 94 5b 00 	call	0xb6	; 0xb6 <lcd_command_write>
     64a:	8a ea       	ldi	r24, 0xAA	; 170
     64c:	90 e0       	ldi	r25, 0x00	; 0
     64e:	0e 94 78 00 	call	0xf0	; 0xf0 <lcd_string_write>
     652:	89 ec       	ldi	r24, 0xC9	; 201
     654:	0e 94 5b 00 	call	0xb6	; 0xb6 <lcd_command_write>
     658:	80 91 10 03 	lds	r24, 0x0310
     65c:	6a e0       	ldi	r22, 0x0A	; 10
     65e:	90 e0       	ldi	r25, 0x00	; 0
     660:	0e 94 84 00 	call	0x108	; 0x108 <lcd_number_write>
     664:	80 91 10 03 	lds	r24, 0x0310
     668:	8a 30       	cpi	r24, 0x0A	; 10
     66a:	48 f0       	brcs	.+18     	; 0x67e <display_time+0x22e>
     66c:	88 ec       	ldi	r24, 0xC8	; 200
     66e:	0e 94 5b 00 	call	0xb6	; 0xb6 <lcd_command_write>
     672:	80 91 10 03 	lds	r24, 0x0310
     676:	6a e0       	ldi	r22, 0x0A	; 10
     678:	90 e0       	ldi	r25, 0x00	; 0
     67a:	0e 94 84 00 	call	0x108	; 0x108 <lcd_number_write>
     67e:	84 e8       	ldi	r24, 0x84	; 132
     680:	0e 94 5b 00 	call	0xb6	; 0xb6 <lcd_command_write>
     684:	8c ea       	ldi	r24, 0xAC	; 172
     686:	90 e0       	ldi	r25, 0x00	; 0
     688:	0e 94 78 00 	call	0xf0	; 0xf0 <lcd_string_write>
     68c:	87 e8       	ldi	r24, 0x87	; 135
     68e:	0e 94 5b 00 	call	0xb6	; 0xb6 <lcd_command_write>
     692:	8c ea       	ldi	r24, 0xAC	; 172
     694:	90 e0       	ldi	r25, 0x00	; 0
     696:	0e 94 78 00 	call	0xf0	; 0xf0 <lcd_string_write>
     69a:	84 ec       	ldi	r24, 0xC4	; 196
     69c:	0e 94 5b 00 	call	0xb6	; 0xb6 <lcd_command_write>
     6a0:	8e ea       	ldi	r24, 0xAE	; 174
     6a2:	90 e0       	ldi	r25, 0x00	; 0
     6a4:	0e 94 78 00 	call	0xf0	; 0xf0 <lcd_string_write>
     6a8:	87 ec       	ldi	r24, 0xC7	; 199
     6aa:	0e 94 5b 00 	call	0xb6	; 0xb6 <lcd_command_write>
     6ae:	8e ea       	ldi	r24, 0xAE	; 174
     6b0:	90 e0       	ldi	r25, 0x00	; 0
     6b2:	2e 96       	adiw	r28, 0x0e	; 14
     6b4:	0f b6       	in	r0, 0x3f	; 63
     6b6:	f8 94       	cli
     6b8:	de bf       	out	0x3e, r29	; 62
     6ba:	0f be       	out	0x3f, r0	; 63
     6bc:	cd bf       	out	0x3d, r28	; 61
     6be:	df 91       	pop	r29
     6c0:	cf 91       	pop	r28
     6c2:	1f 91       	pop	r17
     6c4:	0f 91       	pop	r16
     6c6:	0c 94 78 00 	jmp	0xf0	; 0xf0 <lcd_string_write>

000006ca <adc_init>:
     6ca:	16 b8       	out	0x06, r1	; 6
     6cc:	80 e2       	ldi	r24, 0x20	; 32
     6ce:	87 b9       	out	0x07, r24	; 7
     6d0:	80 e8       	ldi	r24, 0x80	; 128
     6d2:	88 b9       	out	0x08, r24	; 8
     6d4:	86 e8       	ldi	r24, 0x86	; 134
     6d6:	86 b9       	out	0x06, r24	; 6
     6d8:	08 95       	ret

000006da <ReadVoltage>:
     6da:	82 ee       	ldi	r24, 0xE2	; 226
     6dc:	87 b9       	out	0x07, r24	; 7
     6de:	36 9a       	sbi	0x06, 6	; 6
     6e0:	36 99       	sbic	0x06, 6	; 6
     6e2:	fe cf       	rjmp	.-4      	; 0x6e0 <ReadVoltage+0x6>
     6e4:	85 b1       	in	r24, 0x05	; 5
     6e6:	08 95       	ret

000006e8 <print_hour>:
     6e8:	cf 93       	push	r28
     6ea:	df 93       	push	r29
     6ec:	c8 2f       	mov	r28, r24
     6ee:	d6 2f       	mov	r29, r22
     6f0:	0e 94 6d 03 	call	0x6da	; 0x6da <ReadVoltage>
     6f4:	28 e1       	ldi	r18, 0x18	; 24
     6f6:	82 9f       	mul	r24, r18
     6f8:	c0 01       	movw	r24, r0
     6fa:	11 24       	eor	r1, r1
     6fc:	6f ef       	ldi	r22, 0xFF	; 255
     6fe:	70 e0       	ldi	r23, 0x00	; 0
     700:	0e 94 3e 0d 	call	0x1a7c	; 0x1a7c <__divmodhi4>
     704:	60 93 16 03 	sts	0x0316, r22
     708:	68 31       	cpi	r22, 0x18	; 24
     70a:	39 f1       	breq	.+78     	; 0x75a <print_hour+0x72>
     70c:	6a 30       	cpi	r22, 0x0A	; 10
     70e:	98 f4       	brcc	.+38     	; 0x736 <print_hour+0x4e>
     710:	6d 2f       	mov	r22, r29
     712:	8c 2f       	mov	r24, r28
     714:	0e 94 97 00 	call	0x12e	; 0x12e <lcd_cursor>
     718:	8a ea       	ldi	r24, 0xAA	; 170
     71a:	90 e0       	ldi	r25, 0x00	; 0
     71c:	0e 94 78 00 	call	0xf0	; 0xf0 <lcd_string_write>
     720:	61 e0       	ldi	r22, 0x01	; 1
     722:	6d 0f       	add	r22, r29
     724:	8c 2f       	mov	r24, r28
     726:	0e 94 97 00 	call	0x12e	; 0x12e <lcd_cursor>
     72a:	80 91 16 03 	lds	r24, 0x0316
     72e:	6a e0       	ldi	r22, 0x0A	; 10
     730:	90 e0       	ldi	r25, 0x00	; 0
     732:	0e 94 84 00 	call	0x108	; 0x108 <lcd_number_write>
     736:	80 91 16 03 	lds	r24, 0x0316
     73a:	8a 30       	cpi	r24, 0x0A	; 10
     73c:	50 f0       	brcs	.+20     	; 0x752 <print_hour+0x6a>
     73e:	6d 2f       	mov	r22, r29
     740:	8c 2f       	mov	r24, r28
     742:	0e 94 97 00 	call	0x12e	; 0x12e <lcd_cursor>
     746:	80 91 16 03 	lds	r24, 0x0316
     74a:	6a e0       	ldi	r22, 0x0A	; 10
     74c:	90 e0       	ldi	r25, 0x00	; 0
     74e:	0e 94 84 00 	call	0x108	; 0x108 <lcd_number_write>
     752:	80 91 16 03 	lds	r24, 0x0316
     756:	90 e0       	ldi	r25, 0x00	; 0
     758:	02 c0       	rjmp	.+4      	; 0x75e <print_hour+0x76>
     75a:	87 e1       	ldi	r24, 0x17	; 23
     75c:	90 e0       	ldi	r25, 0x00	; 0
     75e:	df 91       	pop	r29
     760:	cf 91       	pop	r28
     762:	08 95       	ret

00000764 <print_minute>:
     764:	cf 93       	push	r28
     766:	df 93       	push	r29
     768:	c8 2f       	mov	r28, r24
     76a:	d6 2f       	mov	r29, r22
     76c:	0e 94 6d 03 	call	0x6da	; 0x6da <ReadVoltage>
     770:	2c e3       	ldi	r18, 0x3C	; 60
     772:	82 9f       	mul	r24, r18
     774:	c0 01       	movw	r24, r0
     776:	11 24       	eor	r1, r1
     778:	6f ef       	ldi	r22, 0xFF	; 255
     77a:	70 e0       	ldi	r23, 0x00	; 0
     77c:	0e 94 3e 0d 	call	0x1a7c	; 0x1a7c <__divmodhi4>
     780:	60 93 16 03 	sts	0x0316, r22
     784:	6d 2f       	mov	r22, r29
     786:	8c 2f       	mov	r24, r28
     788:	0e 94 97 00 	call	0x12e	; 0x12e <lcd_cursor>
     78c:	80 91 16 03 	lds	r24, 0x0316
     790:	8c 33       	cpi	r24, 0x3C	; 60
     792:	38 f5       	brcc	.+78     	; 0x7e2 <print_minute+0x7e>
     794:	8a 30       	cpi	r24, 0x0A	; 10
     796:	98 f4       	brcc	.+38     	; 0x7be <print_minute+0x5a>
     798:	6d 2f       	mov	r22, r29
     79a:	8c 2f       	mov	r24, r28
     79c:	0e 94 97 00 	call	0x12e	; 0x12e <lcd_cursor>
     7a0:	8a ea       	ldi	r24, 0xAA	; 170
     7a2:	90 e0       	ldi	r25, 0x00	; 0
     7a4:	0e 94 78 00 	call	0xf0	; 0xf0 <lcd_string_write>
     7a8:	61 e0       	ldi	r22, 0x01	; 1
     7aa:	6d 0f       	add	r22, r29
     7ac:	8c 2f       	mov	r24, r28
     7ae:	0e 94 97 00 	call	0x12e	; 0x12e <lcd_cursor>
     7b2:	80 91 16 03 	lds	r24, 0x0316
     7b6:	6a e0       	ldi	r22, 0x0A	; 10
     7b8:	90 e0       	ldi	r25, 0x00	; 0
     7ba:	0e 94 84 00 	call	0x108	; 0x108 <lcd_number_write>
     7be:	80 91 16 03 	lds	r24, 0x0316
     7c2:	8a 30       	cpi	r24, 0x0A	; 10
     7c4:	50 f0       	brcs	.+20     	; 0x7da <print_minute+0x76>
     7c6:	6d 2f       	mov	r22, r29
     7c8:	8c 2f       	mov	r24, r28
     7ca:	0e 94 97 00 	call	0x12e	; 0x12e <lcd_cursor>
     7ce:	80 91 16 03 	lds	r24, 0x0316
     7d2:	6a e0       	ldi	r22, 0x0A	; 10
     7d4:	90 e0       	ldi	r25, 0x00	; 0
     7d6:	0e 94 84 00 	call	0x108	; 0x108 <lcd_number_write>
     7da:	80 91 16 03 	lds	r24, 0x0316
     7de:	90 e0       	ldi	r25, 0x00	; 0
     7e0:	02 c0       	rjmp	.+4      	; 0x7e6 <print_minute+0x82>
     7e2:	8b e3       	ldi	r24, 0x3B	; 59
     7e4:	90 e0       	ldi	r25, 0x00	; 0
     7e6:	df 91       	pop	r29
     7e8:	cf 91       	pop	r28
     7ea:	08 95       	ret

000007ec <print_yr>:
     7ec:	cf 93       	push	r28
     7ee:	df 93       	push	r29
     7f0:	c8 2f       	mov	r28, r24
     7f2:	d6 2f       	mov	r29, r22
     7f4:	0e 94 6d 03 	call	0x6da	; 0x6da <ReadVoltage>
     7f8:	24 e6       	ldi	r18, 0x64	; 100
     7fa:	82 9f       	mul	r24, r18
     7fc:	c0 01       	movw	r24, r0
     7fe:	11 24       	eor	r1, r1
     800:	6f ef       	ldi	r22, 0xFF	; 255
     802:	70 e0       	ldi	r23, 0x00	; 0
     804:	0e 94 3e 0d 	call	0x1a7c	; 0x1a7c <__divmodhi4>
     808:	60 93 16 03 	sts	0x0316, r22
     80c:	64 36       	cpi	r22, 0x64	; 100
     80e:	39 f1       	breq	.+78     	; 0x85e <print_yr+0x72>
     810:	6a 30       	cpi	r22, 0x0A	; 10
     812:	98 f4       	brcc	.+38     	; 0x83a <print_yr+0x4e>
     814:	6d 2f       	mov	r22, r29
     816:	8c 2f       	mov	r24, r28
     818:	0e 94 97 00 	call	0x12e	; 0x12e <lcd_cursor>
     81c:	8a ea       	ldi	r24, 0xAA	; 170
     81e:	90 e0       	ldi	r25, 0x00	; 0
     820:	0e 94 78 00 	call	0xf0	; 0xf0 <lcd_string_write>
     824:	61 e0       	ldi	r22, 0x01	; 1
     826:	6d 0f       	add	r22, r29
     828:	8c 2f       	mov	r24, r28
     82a:	0e 94 97 00 	call	0x12e	; 0x12e <lcd_cursor>
     82e:	80 91 16 03 	lds	r24, 0x0316
     832:	6a e0       	ldi	r22, 0x0A	; 10
     834:	90 e0       	ldi	r25, 0x00	; 0
     836:	0e 94 84 00 	call	0x108	; 0x108 <lcd_number_write>
     83a:	80 91 16 03 	lds	r24, 0x0316
     83e:	8a 30       	cpi	r24, 0x0A	; 10
     840:	50 f0       	brcs	.+20     	; 0x856 <print_yr+0x6a>
     842:	6d 2f       	mov	r22, r29
     844:	8c 2f       	mov	r24, r28
     846:	0e 94 97 00 	call	0x12e	; 0x12e <lcd_cursor>
     84a:	80 91 16 03 	lds	r24, 0x0316
     84e:	6a e0       	ldi	r22, 0x0A	; 10
     850:	90 e0       	ldi	r25, 0x00	; 0
     852:	0e 94 84 00 	call	0x108	; 0x108 <lcd_number_write>
     856:	80 91 16 03 	lds	r24, 0x0316
     85a:	90 e0       	ldi	r25, 0x00	; 0
     85c:	02 c0       	rjmp	.+4      	; 0x862 <__stack+0x3>
     85e:	83 e6       	ldi	r24, 0x63	; 99
     860:	90 e0       	ldi	r25, 0x00	; 0
     862:	df 91       	pop	r29
     864:	cf 91       	pop	r28
     866:	08 95       	ret

00000868 <print_date>:
     868:	cf 93       	push	r28
     86a:	df 93       	push	r29
     86c:	c8 2f       	mov	r28, r24
     86e:	d6 2f       	mov	r29, r22
     870:	0e 94 6d 03 	call	0x6da	; 0x6da <ReadVoltage>
     874:	2f e1       	ldi	r18, 0x1F	; 31
     876:	82 9f       	mul	r24, r18
     878:	c0 01       	movw	r24, r0
     87a:	11 24       	eor	r1, r1
     87c:	6f ef       	ldi	r22, 0xFF	; 255
     87e:	70 e0       	ldi	r23, 0x00	; 0
     880:	0e 94 3e 0d 	call	0x1a7c	; 0x1a7c <__divmodhi4>
     884:	60 93 16 03 	sts	0x0316, r22
     888:	6a 30       	cpi	r22, 0x0A	; 10
     88a:	c0 f4       	brcc	.+48     	; 0x8bc <print_date+0x54>
     88c:	61 11       	cpse	r22, r1
     88e:	03 c0       	rjmp	.+6      	; 0x896 <print_date+0x2e>
     890:	81 e0       	ldi	r24, 0x01	; 1
     892:	80 93 16 03 	sts	0x0316, r24
     896:	6d 2f       	mov	r22, r29
     898:	8c 2f       	mov	r24, r28
     89a:	0e 94 97 00 	call	0x12e	; 0x12e <lcd_cursor>
     89e:	8a ea       	ldi	r24, 0xAA	; 170
     8a0:	90 e0       	ldi	r25, 0x00	; 0
     8a2:	0e 94 78 00 	call	0xf0	; 0xf0 <lcd_string_write>
     8a6:	61 e0       	ldi	r22, 0x01	; 1
     8a8:	6d 0f       	add	r22, r29
     8aa:	8c 2f       	mov	r24, r28
     8ac:	0e 94 97 00 	call	0x12e	; 0x12e <lcd_cursor>
     8b0:	80 91 16 03 	lds	r24, 0x0316
     8b4:	6a e0       	ldi	r22, 0x0A	; 10
     8b6:	90 e0       	ldi	r25, 0x00	; 0
     8b8:	0e 94 84 00 	call	0x108	; 0x108 <lcd_number_write>
     8bc:	80 91 16 03 	lds	r24, 0x0316
     8c0:	8a 30       	cpi	r24, 0x0A	; 10
     8c2:	50 f0       	brcs	.+20     	; 0x8d8 <print_date+0x70>
     8c4:	6d 2f       	mov	r22, r29
     8c6:	8c 2f       	mov	r24, r28
     8c8:	0e 94 97 00 	call	0x12e	; 0x12e <lcd_cursor>
     8cc:	80 91 16 03 	lds	r24, 0x0316
     8d0:	6a e0       	ldi	r22, 0x0A	; 10
     8d2:	90 e0       	ldi	r25, 0x00	; 0
     8d4:	0e 94 84 00 	call	0x108	; 0x108 <lcd_number_write>
     8d8:	80 91 16 03 	lds	r24, 0x0316
     8dc:	90 e0       	ldi	r25, 0x00	; 0
     8de:	df 91       	pop	r29
     8e0:	cf 91       	pop	r28
     8e2:	08 95       	ret

000008e4 <print_month>:
     8e4:	cf 93       	push	r28
     8e6:	df 93       	push	r29
     8e8:	c8 2f       	mov	r28, r24
     8ea:	d6 2f       	mov	r29, r22
     8ec:	0e 94 6d 03 	call	0x6da	; 0x6da <ReadVoltage>
     8f0:	2c e0       	ldi	r18, 0x0C	; 12
     8f2:	82 9f       	mul	r24, r18
     8f4:	c0 01       	movw	r24, r0
     8f6:	11 24       	eor	r1, r1
     8f8:	6f ef       	ldi	r22, 0xFF	; 255
     8fa:	70 e0       	ldi	r23, 0x00	; 0
     8fc:	0e 94 3e 0d 	call	0x1a7c	; 0x1a7c <__divmodhi4>
     900:	60 93 16 03 	sts	0x0316, r22
     904:	6c 30       	cpi	r22, 0x0C	; 12
     906:	59 f1       	breq	.+86     	; 0x95e <print_month+0x7a>
     908:	6a 30       	cpi	r22, 0x0A	; 10
     90a:	a8 f4       	brcc	.+42     	; 0x936 <print_month+0x52>
     90c:	6d 2f       	mov	r22, r29
     90e:	8c 2f       	mov	r24, r28
     910:	0e 94 97 00 	call	0x12e	; 0x12e <lcd_cursor>
     914:	8a ea       	ldi	r24, 0xAA	; 170
     916:	90 e0       	ldi	r25, 0x00	; 0
     918:	0e 94 78 00 	call	0xf0	; 0xf0 <lcd_string_write>
     91c:	61 e0       	ldi	r22, 0x01	; 1
     91e:	6d 0f       	add	r22, r29
     920:	8c 2f       	mov	r24, r28
     922:	0e 94 97 00 	call	0x12e	; 0x12e <lcd_cursor>
     926:	20 91 16 03 	lds	r18, 0x0316
     92a:	82 2f       	mov	r24, r18
     92c:	90 e0       	ldi	r25, 0x00	; 0
     92e:	6a e0       	ldi	r22, 0x0A	; 10
     930:	01 96       	adiw	r24, 0x01	; 1
     932:	0e 94 84 00 	call	0x108	; 0x108 <lcd_number_write>
     936:	80 91 16 03 	lds	r24, 0x0316
     93a:	8a 30       	cpi	r24, 0x0A	; 10
     93c:	58 f0       	brcs	.+22     	; 0x954 <print_month+0x70>
     93e:	6d 2f       	mov	r22, r29
     940:	8c 2f       	mov	r24, r28
     942:	0e 94 97 00 	call	0x12e	; 0x12e <lcd_cursor>
     946:	80 91 16 03 	lds	r24, 0x0316
     94a:	90 e0       	ldi	r25, 0x00	; 0
     94c:	6a e0       	ldi	r22, 0x0A	; 10
     94e:	01 96       	adiw	r24, 0x01	; 1
     950:	0e 94 84 00 	call	0x108	; 0x108 <lcd_number_write>
     954:	80 91 16 03 	lds	r24, 0x0316
     958:	90 e0       	ldi	r25, 0x00	; 0
     95a:	01 96       	adiw	r24, 0x01	; 1
     95c:	02 c0       	rjmp	.+4      	; 0x962 <print_month+0x7e>
     95e:	8c e0       	ldi	r24, 0x0C	; 12
     960:	90 e0       	ldi	r25, 0x00	; 0
     962:	df 91       	pop	r29
     964:	cf 91       	pop	r28
     966:	08 95       	ret

00000968 <menu_option_P0>:
     968:	0f 93       	push	r16
     96a:	1f 93       	push	r17
     96c:	cf 93       	push	r28
     96e:	df 93       	push	r29
     970:	81 e0       	ldi	r24, 0x01	; 1
     972:	0e 94 5b 00 	call	0xb6	; 0xb6 <lcd_command_write>
     976:	80 e8       	ldi	r24, 0x80	; 128
     978:	0e 94 5b 00 	call	0xb6	; 0xb6 <lcd_command_write>
     97c:	8c ec       	ldi	r24, 0xCC	; 204
     97e:	90 e0       	ldi	r25, 0x00	; 0
     980:	0e 94 78 00 	call	0xf0	; 0xf0 <lcd_string_write>
     984:	80 ec       	ldi	r24, 0xC0	; 192
     986:	0e 94 5b 00 	call	0xb6	; 0xb6 <lcd_command_write>
     98a:	40 e0       	ldi	r20, 0x00	; 0
     98c:	61 e0       	ldi	r22, 0x01	; 1
     98e:	82 e0       	ldi	r24, 0x02	; 2
     990:	0e 94 b2 03 	call	0x764	; 0x764 <print_minute>
     994:	8c 01       	movw	r16, r24
     996:	89 b3       	in	r24, 0x19	; 25
     998:	80 93 17 03 	sts	0x0317, r24
     99c:	80 ff       	sbrs	r24, 0
     99e:	0b c0       	rjmp	.+22     	; 0x9b6 <menu_option_P0+0x4e>
     9a0:	81 e0       	ldi	r24, 0x01	; 1
     9a2:	0e 94 5b 00 	call	0xb6	; 0xb6 <lcd_command_write>
     9a6:	b8 01       	movw	r22, r16
     9a8:	80 e0       	ldi	r24, 0x00	; 0
     9aa:	90 e0       	ldi	r25, 0x00	; 0
     9ac:	0e 94 9b 0e 	call	0x1d36	; 0x1d36 <__eewr_word_m32>
     9b0:	c1 e0       	ldi	r28, 0x01	; 1
     9b2:	d0 e0       	ldi	r29, 0x00	; 0
     9b4:	65 c0       	rjmp	.+202    	; 0xa80 <menu_option_P0+0x118>
     9b6:	81 ff       	sbrs	r24, 1
     9b8:	e8 cf       	rjmp	.-48     	; 0x98a <menu_option_P0+0x22>
     9ba:	81 e0       	ldi	r24, 0x01	; 1
     9bc:	0e 94 5b 00 	call	0xb6	; 0xb6 <lcd_command_write>
     9c0:	80 e0       	ldi	r24, 0x00	; 0
     9c2:	90 e0       	ldi	r25, 0x00	; 0
     9c4:	67 c0       	rjmp	.+206    	; 0xa94 <menu_option_P0+0x12c>
     9c6:	21 ff       	sbrs	r18, 1
     9c8:	38 c0       	rjmp	.+112    	; 0xa3a <menu_option_P0+0xd2>
     9ca:	81 e0       	ldi	r24, 0x01	; 1
     9cc:	0e 94 5b 00 	call	0xb6	; 0xb6 <lcd_command_write>
     9d0:	80 e8       	ldi	r24, 0x80	; 128
     9d2:	0e 94 5b 00 	call	0xb6	; 0xb6 <lcd_command_write>
     9d6:	8c ed       	ldi	r24, 0xDC	; 220
     9d8:	90 e0       	ldi	r25, 0x00	; 0
     9da:	0e 94 78 00 	call	0xf0	; 0xf0 <lcd_string_write>
     9de:	6a e0       	ldi	r22, 0x0A	; 10
     9e0:	ce 01       	movw	r24, r28
     9e2:	0e 94 84 00 	call	0x108	; 0x108 <lcd_number_write>
     9e6:	80 ec       	ldi	r24, 0xC0	; 192
     9e8:	0e 94 5b 00 	call	0xb6	; 0xb6 <lcd_command_write>
     9ec:	8b ee       	ldi	r24, 0xEB	; 235
     9ee:	90 e0       	ldi	r25, 0x00	; 0
     9f0:	0e 94 78 00 	call	0xf0	; 0xf0 <lcd_string_write>
     9f4:	8a ec       	ldi	r24, 0xCA	; 202
     9f6:	0e 94 5b 00 	call	0xb6	; 0xb6 <lcd_command_write>
     9fa:	6a e0       	ldi	r22, 0x0A	; 10
     9fc:	ce 01       	movw	r24, r28
     9fe:	0e 94 84 00 	call	0x108	; 0x108 <lcd_number_write>
     a02:	8e ec       	ldi	r24, 0xCE	; 206
     a04:	0e 94 5b 00 	call	0xb6	; 0xb6 <lcd_command_write>
     a08:	6a e0       	ldi	r22, 0x0A	; 10
     a0a:	c8 01       	movw	r24, r16
     a0c:	0e 94 84 00 	call	0x108	; 0x108 <lcd_number_write>
     a10:	89 b3       	in	r24, 0x19	; 25
     a12:	80 93 17 03 	sts	0x0317, r24
     a16:	40 e0       	ldi	r20, 0x00	; 0
     a18:	61 e0       	ldi	r22, 0x01	; 1
     a1a:	82 e0       	ldi	r24, 0x02	; 2
     a1c:	0e 94 74 03 	call	0x6e8	; 0x6e8 <print_hour>
     a20:	80 93 1a 03 	sts	0x031A, r24
     a24:	80 91 17 03 	lds	r24, 0x0317
     a28:	80 ff       	sbrs	r24, 0
     a2a:	31 c0       	rjmp	.+98     	; 0xa8e <menu_option_P0+0x126>
     a2c:	80 e8       	ldi	r24, 0x80	; 128
     a2e:	0e 94 5b 00 	call	0xb6	; 0xb6 <lcd_command_write>
     a32:	8c ef       	ldi	r24, 0xFC	; 252
     a34:	90 e0       	ldi	r25, 0x00	; 0
     a36:	0e 94 78 00 	call	0xf0	; 0xf0 <lcd_string_write>
     a3a:	89 b3       	in	r24, 0x19	; 25
     a3c:	80 93 17 03 	sts	0x0317, r24
     a40:	40 e0       	ldi	r20, 0x00	; 0
     a42:	64 e0       	ldi	r22, 0x04	; 4
     a44:	82 e0       	ldi	r24, 0x02	; 2
     a46:	0e 94 b2 03 	call	0x764	; 0x764 <print_minute>
     a4a:	80 93 18 03 	sts	0x0318, r24
     a4e:	20 91 17 03 	lds	r18, 0x0317
     a52:	20 ff       	sbrs	r18, 0
     a54:	b8 cf       	rjmp	.-144    	; 0x9c6 <menu_option_P0+0x5e>
     a56:	20 91 1a 03 	lds	r18, 0x031A
     a5a:	bc 01       	movw	r22, r24
     a5c:	77 27       	eor	r23, r23
     a5e:	84 e6       	ldi	r24, 0x64	; 100
     a60:	28 9f       	mul	r18, r24
     a62:	60 0d       	add	r22, r0
     a64:	71 1d       	adc	r23, r1
     a66:	11 24       	eor	r1, r1
     a68:	ce 01       	movw	r24, r28
     a6a:	88 0f       	add	r24, r24
     a6c:	99 1f       	adc	r25, r25
     a6e:	0e 94 9b 0e 	call	0x1d36	; 0x1d36 <__eewr_word_m32>
     a72:	88 ec       	ldi	r24, 0xC8	; 200
     a74:	0e 94 5b 00 	call	0xb6	; 0xb6 <lcd_command_write>
     a78:	81 e0       	ldi	r24, 0x01	; 1
     a7a:	0e 94 5b 00 	call	0xb6	; 0xb6 <lcd_command_write>
     a7e:	21 96       	adiw	r28, 0x01	; 1
     a80:	ce 01       	movw	r24, r28
     a82:	01 97       	sbiw	r24, 0x01	; 1
     a84:	80 17       	cp	r24, r16
     a86:	91 07       	cpc	r25, r17
     a88:	0c f4       	brge	.+2      	; 0xa8c <menu_option_P0+0x124>
     a8a:	a2 cf       	rjmp	.-188    	; 0x9d0 <menu_option_P0+0x68>
     a8c:	03 c0       	rjmp	.+6      	; 0xa94 <menu_option_P0+0x12c>
     a8e:	81 ff       	sbrs	r24, 1
     a90:	bf cf       	rjmp	.-130    	; 0xa10 <menu_option_P0+0xa8>
     a92:	93 cf       	rjmp	.-218    	; 0x9ba <menu_option_P0+0x52>
     a94:	df 91       	pop	r29
     a96:	cf 91       	pop	r28
     a98:	1f 91       	pop	r17
     a9a:	0f 91       	pop	r16
     a9c:	08 95       	ret

00000a9e <menu_option_P1>:
     a9e:	ef 92       	push	r14
     aa0:	ff 92       	push	r15
     aa2:	0f 93       	push	r16
     aa4:	1f 93       	push	r17
     aa6:	cf 93       	push	r28
     aa8:	df 93       	push	r29
     aaa:	81 e0       	ldi	r24, 0x01	; 1
     aac:	0e 94 5b 00 	call	0xb6	; 0xb6 <lcd_command_write>
     ab0:	80 e8       	ldi	r24, 0x80	; 128
     ab2:	0e 94 5b 00 	call	0xb6	; 0xb6 <lcd_command_write>
     ab6:	8c ec       	ldi	r24, 0xCC	; 204
     ab8:	90 e0       	ldi	r25, 0x00	; 0
     aba:	0e 94 78 00 	call	0xf0	; 0xf0 <lcd_string_write>
     abe:	80 ec       	ldi	r24, 0xC0	; 192
     ac0:	0e 94 5b 00 	call	0xb6	; 0xb6 <lcd_command_write>
     ac4:	40 e0       	ldi	r20, 0x00	; 0
     ac6:	61 e0       	ldi	r22, 0x01	; 1
     ac8:	82 e0       	ldi	r24, 0x02	; 2
     aca:	0e 94 b2 03 	call	0x764	; 0x764 <print_minute>
     ace:	ec 01       	movw	r28, r24
     ad0:	89 b3       	in	r24, 0x19	; 25
     ad2:	80 93 17 03 	sts	0x0317, r24
     ad6:	80 ff       	sbrs	r24, 0
     ad8:	0d c0       	rjmp	.+26     	; 0xaf4 <menu_option_P1+0x56>
     ada:	81 e0       	ldi	r24, 0x01	; 1
     adc:	0e 94 5b 00 	call	0xb6	; 0xb6 <lcd_command_write>
     ae0:	be 01       	movw	r22, r28
     ae2:	8a ea       	ldi	r24, 0xAA	; 170
     ae4:	90 e0       	ldi	r25, 0x00	; 0
     ae6:	0e 94 9b 0e 	call	0x1d36	; 0x1d36 <__eewr_word_m32>
     aea:	0c ea       	ldi	r16, 0xAC	; 172
     aec:	10 e0       	ldi	r17, 0x00	; 0
     aee:	e1 2c       	mov	r14, r1
     af0:	f1 2c       	mov	r15, r1
     af2:	64 c0       	rjmp	.+200    	; 0xbbc <menu_option_P1+0x11e>
     af4:	81 ff       	sbrs	r24, 1
     af6:	e6 cf       	rjmp	.-52     	; 0xac4 <menu_option_P1+0x26>
     af8:	81 e0       	ldi	r24, 0x01	; 1
     afa:	0e 94 5b 00 	call	0xb6	; 0xb6 <lcd_command_write>
     afe:	80 e0       	ldi	r24, 0x00	; 0
     b00:	90 e0       	ldi	r25, 0x00	; 0
     b02:	66 c0       	rjmp	.+204    	; 0xbd0 <menu_option_P1+0x132>
     b04:	21 ff       	sbrs	r18, 1
     b06:	38 c0       	rjmp	.+112    	; 0xb78 <menu_option_P1+0xda>
     b08:	81 e0       	ldi	r24, 0x01	; 1
     b0a:	0e 94 5b 00 	call	0xb6	; 0xb6 <lcd_command_write>
     b0e:	80 e8       	ldi	r24, 0x80	; 128
     b10:	0e 94 5b 00 	call	0xb6	; 0xb6 <lcd_command_write>
     b14:	8b e0       	ldi	r24, 0x0B	; 11
     b16:	91 e0       	ldi	r25, 0x01	; 1
     b18:	0e 94 78 00 	call	0xf0	; 0xf0 <lcd_string_write>
     b1c:	6a e0       	ldi	r22, 0x0A	; 10
     b1e:	c7 01       	movw	r24, r14
     b20:	0e 94 84 00 	call	0x108	; 0x108 <lcd_number_write>
     b24:	80 ec       	ldi	r24, 0xC0	; 192
     b26:	0e 94 5b 00 	call	0xb6	; 0xb6 <lcd_command_write>
     b2a:	8b ee       	ldi	r24, 0xEB	; 235
     b2c:	90 e0       	ldi	r25, 0x00	; 0
     b2e:	0e 94 78 00 	call	0xf0	; 0xf0 <lcd_string_write>
     b32:	8a ec       	ldi	r24, 0xCA	; 202
     b34:	0e 94 5b 00 	call	0xb6	; 0xb6 <lcd_command_write>
     b38:	6a e0       	ldi	r22, 0x0A	; 10
     b3a:	c7 01       	movw	r24, r14
     b3c:	0e 94 84 00 	call	0x108	; 0x108 <lcd_number_write>
     b40:	8e ec       	ldi	r24, 0xCE	; 206
     b42:	0e 94 5b 00 	call	0xb6	; 0xb6 <lcd_command_write>
     b46:	6a e0       	ldi	r22, 0x0A	; 10
     b48:	ce 01       	movw	r24, r28
     b4a:	0e 94 84 00 	call	0x108	; 0x108 <lcd_number_write>
     b4e:	89 b3       	in	r24, 0x19	; 25
     b50:	80 93 17 03 	sts	0x0317, r24
     b54:	40 e0       	ldi	r20, 0x00	; 0
     b56:	61 e0       	ldi	r22, 0x01	; 1
     b58:	82 e0       	ldi	r24, 0x02	; 2
     b5a:	0e 94 74 03 	call	0x6e8	; 0x6e8 <print_hour>
     b5e:	80 93 1a 03 	sts	0x031A, r24
     b62:	80 91 17 03 	lds	r24, 0x0317
     b66:	80 ff       	sbrs	r24, 0
     b68:	30 c0       	rjmp	.+96     	; 0xbca <menu_option_P1+0x12c>
     b6a:	80 e8       	ldi	r24, 0x80	; 128
     b6c:	0e 94 5b 00 	call	0xb6	; 0xb6 <lcd_command_write>
     b70:	8a e1       	ldi	r24, 0x1A	; 26
     b72:	91 e0       	ldi	r25, 0x01	; 1
     b74:	0e 94 78 00 	call	0xf0	; 0xf0 <lcd_string_write>
     b78:	89 b3       	in	r24, 0x19	; 25
     b7a:	80 93 17 03 	sts	0x0317, r24
     b7e:	40 e0       	ldi	r20, 0x00	; 0
     b80:	64 e0       	ldi	r22, 0x04	; 4
     b82:	82 e0       	ldi	r24, 0x02	; 2
     b84:	0e 94 b2 03 	call	0x764	; 0x764 <print_minute>
     b88:	80 93 18 03 	sts	0x0318, r24
     b8c:	20 91 17 03 	lds	r18, 0x0317
     b90:	20 ff       	sbrs	r18, 0
     b92:	b8 cf       	rjmp	.-144    	; 0xb04 <menu_option_P1+0x66>
     b94:	20 91 1a 03 	lds	r18, 0x031A
     b98:	bc 01       	movw	r22, r24
     b9a:	77 27       	eor	r23, r23
     b9c:	84 e6       	ldi	r24, 0x64	; 100
     b9e:	28 9f       	mul	r18, r24
     ba0:	60 0d       	add	r22, r0
     ba2:	71 1d       	adc	r23, r1
     ba4:	11 24       	eor	r1, r1
     ba6:	c8 01       	movw	r24, r16
     ba8:	0e 94 9b 0e 	call	0x1d36	; 0x1d36 <__eewr_word_m32>
     bac:	88 ec       	ldi	r24, 0xC8	; 200
     bae:	0e 94 5b 00 	call	0xb6	; 0xb6 <lcd_command_write>
     bb2:	81 e0       	ldi	r24, 0x01	; 1
     bb4:	0e 94 5b 00 	call	0xb6	; 0xb6 <lcd_command_write>
     bb8:	0e 5f       	subi	r16, 0xFE	; 254
     bba:	1f 4f       	sbci	r17, 0xFF	; 255
     bbc:	ec 16       	cp	r14, r28
     bbe:	fd 06       	cpc	r15, r29
     bc0:	3c f4       	brge	.+14     	; 0xbd0 <menu_option_P1+0x132>
     bc2:	8f ef       	ldi	r24, 0xFF	; 255
     bc4:	e8 1a       	sub	r14, r24
     bc6:	f8 0a       	sbc	r15, r24
     bc8:	a2 cf       	rjmp	.-188    	; 0xb0e <menu_option_P1+0x70>
     bca:	81 ff       	sbrs	r24, 1
     bcc:	c0 cf       	rjmp	.-128    	; 0xb4e <menu_option_P1+0xb0>
     bce:	94 cf       	rjmp	.-216    	; 0xaf8 <menu_option_P1+0x5a>
     bd0:	df 91       	pop	r29
     bd2:	cf 91       	pop	r28
     bd4:	1f 91       	pop	r17
     bd6:	0f 91       	pop	r16
     bd8:	ff 90       	pop	r15
     bda:	ef 90       	pop	r14
     bdc:	08 95       	ret

00000bde <menu_option_P2>:
     bde:	ef 92       	push	r14
     be0:	ff 92       	push	r15
     be2:	0f 93       	push	r16
     be4:	1f 93       	push	r17
     be6:	cf 93       	push	r28
     be8:	df 93       	push	r29
     bea:	81 e0       	ldi	r24, 0x01	; 1
     bec:	0e 94 5b 00 	call	0xb6	; 0xb6 <lcd_command_write>
     bf0:	80 e8       	ldi	r24, 0x80	; 128
     bf2:	0e 94 5b 00 	call	0xb6	; 0xb6 <lcd_command_write>
     bf6:	89 e2       	ldi	r24, 0x29	; 41
     bf8:	91 e0       	ldi	r25, 0x01	; 1
     bfa:	0e 94 78 00 	call	0xf0	; 0xf0 <lcd_string_write>
     bfe:	80 ec       	ldi	r24, 0xC0	; 192
     c00:	0e 94 5b 00 	call	0xb6	; 0xb6 <lcd_command_write>
     c04:	40 e0       	ldi	r20, 0x00	; 0
     c06:	61 e0       	ldi	r22, 0x01	; 1
     c08:	82 e0       	ldi	r24, 0x02	; 2
     c0a:	0e 94 b2 03 	call	0x764	; 0x764 <print_minute>
     c0e:	ec 01       	movw	r28, r24
     c10:	89 b3       	in	r24, 0x19	; 25
     c12:	80 93 17 03 	sts	0x0317, r24
     c16:	80 ff       	sbrs	r24, 0
     c18:	0d c0       	rjmp	.+26     	; 0xc34 <menu_option_P2+0x56>
     c1a:	81 e0       	ldi	r24, 0x01	; 1
     c1c:	0e 94 5b 00 	call	0xb6	; 0xb6 <lcd_command_write>
     c20:	be 01       	movw	r22, r28
     c22:	84 e5       	ldi	r24, 0x54	; 84
     c24:	91 e0       	ldi	r25, 0x01	; 1
     c26:	0e 94 9b 0e 	call	0x1d36	; 0x1d36 <__eewr_word_m32>
     c2a:	06 e5       	ldi	r16, 0x56	; 86
     c2c:	11 e0       	ldi	r17, 0x01	; 1
     c2e:	e1 2c       	mov	r14, r1
     c30:	f1 2c       	mov	r15, r1
     c32:	64 c0       	rjmp	.+200    	; 0xcfc <menu_option_P2+0x11e>
     c34:	81 ff       	sbrs	r24, 1
     c36:	e6 cf       	rjmp	.-52     	; 0xc04 <menu_option_P2+0x26>
     c38:	81 e0       	ldi	r24, 0x01	; 1
     c3a:	0e 94 5b 00 	call	0xb6	; 0xb6 <lcd_command_write>
     c3e:	80 e0       	ldi	r24, 0x00	; 0
     c40:	90 e0       	ldi	r25, 0x00	; 0
     c42:	66 c0       	rjmp	.+204    	; 0xd10 <menu_option_P2+0x132>
     c44:	21 ff       	sbrs	r18, 1
     c46:	38 c0       	rjmp	.+112    	; 0xcb8 <menu_option_P2+0xda>
     c48:	81 e0       	ldi	r24, 0x01	; 1
     c4a:	0e 94 5b 00 	call	0xb6	; 0xb6 <lcd_command_write>
     c4e:	80 e8       	ldi	r24, 0x80	; 128
     c50:	0e 94 5b 00 	call	0xb6	; 0xb6 <lcd_command_write>
     c54:	88 e3       	ldi	r24, 0x38	; 56
     c56:	91 e0       	ldi	r25, 0x01	; 1
     c58:	0e 94 78 00 	call	0xf0	; 0xf0 <lcd_string_write>
     c5c:	6a e0       	ldi	r22, 0x0A	; 10
     c5e:	c7 01       	movw	r24, r14
     c60:	0e 94 84 00 	call	0x108	; 0x108 <lcd_number_write>
     c64:	80 ec       	ldi	r24, 0xC0	; 192
     c66:	0e 94 5b 00 	call	0xb6	; 0xb6 <lcd_command_write>
     c6a:	8b ee       	ldi	r24, 0xEB	; 235
     c6c:	90 e0       	ldi	r25, 0x00	; 0
     c6e:	0e 94 78 00 	call	0xf0	; 0xf0 <lcd_string_write>
     c72:	8a ec       	ldi	r24, 0xCA	; 202
     c74:	0e 94 5b 00 	call	0xb6	; 0xb6 <lcd_command_write>
     c78:	6a e0       	ldi	r22, 0x0A	; 10
     c7a:	c7 01       	movw	r24, r14
     c7c:	0e 94 84 00 	call	0x108	; 0x108 <lcd_number_write>
     c80:	8e ec       	ldi	r24, 0xCE	; 206
     c82:	0e 94 5b 00 	call	0xb6	; 0xb6 <lcd_command_write>
     c86:	6a e0       	ldi	r22, 0x0A	; 10
     c88:	ce 01       	movw	r24, r28
     c8a:	0e 94 84 00 	call	0x108	; 0x108 <lcd_number_write>
     c8e:	89 b3       	in	r24, 0x19	; 25
     c90:	80 93 17 03 	sts	0x0317, r24
     c94:	40 e0       	ldi	r20, 0x00	; 0
     c96:	61 e0       	ldi	r22, 0x01	; 1
     c98:	82 e0       	ldi	r24, 0x02	; 2
     c9a:	0e 94 74 03 	call	0x6e8	; 0x6e8 <print_hour>
     c9e:	80 93 1a 03 	sts	0x031A, r24
     ca2:	80 91 17 03 	lds	r24, 0x0317
     ca6:	80 ff       	sbrs	r24, 0
     ca8:	30 c0       	rjmp	.+96     	; 0xd0a <menu_option_P2+0x12c>
     caa:	80 e8       	ldi	r24, 0x80	; 128
     cac:	0e 94 5b 00 	call	0xb6	; 0xb6 <lcd_command_write>
     cb0:	87 e4       	ldi	r24, 0x47	; 71
     cb2:	91 e0       	ldi	r25, 0x01	; 1
     cb4:	0e 94 78 00 	call	0xf0	; 0xf0 <lcd_string_write>
     cb8:	89 b3       	in	r24, 0x19	; 25
     cba:	80 93 17 03 	sts	0x0317, r24
     cbe:	40 e0       	ldi	r20, 0x00	; 0
     cc0:	64 e0       	ldi	r22, 0x04	; 4
     cc2:	82 e0       	ldi	r24, 0x02	; 2
     cc4:	0e 94 b2 03 	call	0x764	; 0x764 <print_minute>
     cc8:	80 93 18 03 	sts	0x0318, r24
     ccc:	20 91 17 03 	lds	r18, 0x0317
     cd0:	20 ff       	sbrs	r18, 0
     cd2:	b8 cf       	rjmp	.-144    	; 0xc44 <menu_option_P2+0x66>
     cd4:	20 91 1a 03 	lds	r18, 0x031A
     cd8:	bc 01       	movw	r22, r24
     cda:	77 27       	eor	r23, r23
     cdc:	84 e6       	ldi	r24, 0x64	; 100
     cde:	28 9f       	mul	r18, r24
     ce0:	60 0d       	add	r22, r0
     ce2:	71 1d       	adc	r23, r1
     ce4:	11 24       	eor	r1, r1
     ce6:	c8 01       	movw	r24, r16
     ce8:	0e 94 9b 0e 	call	0x1d36	; 0x1d36 <__eewr_word_m32>
     cec:	88 ec       	ldi	r24, 0xC8	; 200
     cee:	0e 94 5b 00 	call	0xb6	; 0xb6 <lcd_command_write>
     cf2:	81 e0       	ldi	r24, 0x01	; 1
     cf4:	0e 94 5b 00 	call	0xb6	; 0xb6 <lcd_command_write>
     cf8:	0e 5f       	subi	r16, 0xFE	; 254
     cfa:	1f 4f       	sbci	r17, 0xFF	; 255
     cfc:	ec 16       	cp	r14, r28
     cfe:	fd 06       	cpc	r15, r29
     d00:	3c f4       	brge	.+14     	; 0xd10 <menu_option_P2+0x132>
     d02:	8f ef       	ldi	r24, 0xFF	; 255
     d04:	e8 1a       	sub	r14, r24
     d06:	f8 0a       	sbc	r15, r24
     d08:	a2 cf       	rjmp	.-188    	; 0xc4e <menu_option_P2+0x70>
     d0a:	81 ff       	sbrs	r24, 1
     d0c:	c0 cf       	rjmp	.-128    	; 0xc8e <menu_option_P2+0xb0>
     d0e:	94 cf       	rjmp	.-216    	; 0xc38 <menu_option_P2+0x5a>
     d10:	df 91       	pop	r29
     d12:	cf 91       	pop	r28
     d14:	1f 91       	pop	r17
     d16:	0f 91       	pop	r16
     d18:	ff 90       	pop	r15
     d1a:	ef 90       	pop	r14
     d1c:	08 95       	ret

00000d1e <menu_option_runP0>:
     d1e:	af 92       	push	r10
     d20:	bf 92       	push	r11
     d22:	cf 92       	push	r12
     d24:	df 92       	push	r13
     d26:	ef 92       	push	r14
     d28:	ff 92       	push	r15
     d2a:	0f 93       	push	r16
     d2c:	1f 93       	push	r17
     d2e:	cf 93       	push	r28
     d30:	df 93       	push	r29
     d32:	80 e0       	ldi	r24, 0x00	; 0
     d34:	90 e0       	ldi	r25, 0x00	; 0
     d36:	0e 94 95 0e 	call	0x1d2a	; 0x1d2a <__eerd_word_m32>
     d3a:	7c 01       	movw	r14, r24
     d3c:	c0 e0       	ldi	r28, 0x00	; 0
     d3e:	d0 e0       	ldi	r29, 0x00	; 0
     d40:	44 e6       	ldi	r20, 0x64	; 100
     d42:	c4 2e       	mov	r12, r20
     d44:	d1 2c       	mov	r13, r1
     d46:	56 e0       	ldi	r21, 0x06	; 6
     d48:	b5 2e       	mov	r11, r21
     d4a:	63 e0       	ldi	r22, 0x03	; 3
     d4c:	a6 2e       	mov	r10, r22
     d4e:	0e 94 28 02 	call	0x450	; 0x450 <display_time>
     d52:	8d ec       	ldi	r24, 0xCD	; 205
     d54:	0e 94 5b 00 	call	0xb6	; 0xb6 <lcd_command_write>
     d58:	86 e5       	ldi	r24, 0x56	; 86
     d5a:	91 e0       	ldi	r25, 0x01	; 1
     d5c:	0e 94 78 00 	call	0xf0	; 0xf0 <lcd_string_write>
     d60:	8e 01       	movw	r16, r28
     d62:	0f 5f       	subi	r16, 0xFF	; 255
     d64:	1f 4f       	sbci	r17, 0xFF	; 255
     d66:	c8 01       	movw	r24, r16
     d68:	88 0f       	add	r24, r24
     d6a:	99 1f       	adc	r25, r25
     d6c:	0e 94 95 0e 	call	0x1d2a	; 0x1d2a <__eerd_word_m32>
     d70:	20 91 1a 03 	lds	r18, 0x031A
     d74:	30 e0       	ldi	r19, 0x00	; 0
     d76:	b6 01       	movw	r22, r12
     d78:	0e 94 2a 0d 	call	0x1a54	; 0x1a54 <__udivmodhi4>
     d7c:	26 17       	cp	r18, r22
     d7e:	37 07       	cpc	r19, r23
     d80:	91 f4       	brne	.+36     	; 0xda6 <menu_option_runP0+0x88>
     d82:	20 91 18 03 	lds	r18, 0x0318
     d86:	30 e0       	ldi	r19, 0x00	; 0
     d88:	28 17       	cp	r18, r24
     d8a:	39 07       	cpc	r19, r25
     d8c:	61 f4       	brne	.+24     	; 0xda6 <menu_option_runP0+0x88>
     d8e:	b5 ba       	out	0x15, r11	; 21
     d90:	2f ef       	ldi	r18, 0xFF	; 255
     d92:	89 e6       	ldi	r24, 0x69	; 105
     d94:	98 e1       	ldi	r25, 0x18	; 24
     d96:	21 50       	subi	r18, 0x01	; 1
     d98:	80 40       	sbci	r24, 0x00	; 0
     d9a:	90 40       	sbci	r25, 0x00	; 0
     d9c:	e1 f7       	brne	.-8      	; 0xd96 <menu_option_runP0+0x78>
     d9e:	00 c0       	rjmp	.+0      	; 0xda0 <menu_option_runP0+0x82>
     da0:	00 00       	nop
     da2:	a5 ba       	out	0x15, r10	; 21
     da4:	e8 01       	movw	r28, r16
     da6:	ec 16       	cp	r14, r28
     da8:	fd 06       	cpc	r15, r29
     daa:	3c f0       	brlt	.+14     	; 0xdba <menu_option_runP0+0x9c>
     dac:	89 b3       	in	r24, 0x19	; 25
     dae:	80 93 17 03 	sts	0x0317, r24
     db2:	83 fd       	sbrc	r24, 3
     db4:	02 c0       	rjmp	.+4      	; 0xdba <menu_option_runP0+0x9c>
     db6:	80 73       	andi	r24, 0x30	; 48
     db8:	51 f2       	breq	.-108    	; 0xd4e <menu_option_runP0+0x30>
     dba:	df 91       	pop	r29
     dbc:	cf 91       	pop	r28
     dbe:	1f 91       	pop	r17
     dc0:	0f 91       	pop	r16
     dc2:	ff 90       	pop	r15
     dc4:	ef 90       	pop	r14
     dc6:	df 90       	pop	r13
     dc8:	cf 90       	pop	r12
     dca:	bf 90       	pop	r11
     dcc:	af 90       	pop	r10
     dce:	08 95       	ret

00000dd0 <menu_option_runP1>:
     dd0:	cf 92       	push	r12
     dd2:	df 92       	push	r13
     dd4:	ef 92       	push	r14
     dd6:	ff 92       	push	r15
     dd8:	0f 93       	push	r16
     dda:	1f 93       	push	r17
     ddc:	cf 93       	push	r28
     dde:	df 93       	push	r29
     de0:	8a ea       	ldi	r24, 0xAA	; 170
     de2:	90 e0       	ldi	r25, 0x00	; 0
     de4:	0e 94 95 0e 	call	0x1d2a	; 0x1d2a <__eerd_word_m32>
     de8:	8c 01       	movw	r16, r24
     dea:	c0 e0       	ldi	r28, 0x00	; 0
     dec:	d0 e0       	ldi	r29, 0x00	; 0
     dee:	e4 e6       	ldi	r30, 0x64	; 100
     df0:	ee 2e       	mov	r14, r30
     df2:	f1 2c       	mov	r15, r1
     df4:	f6 e0       	ldi	r31, 0x06	; 6
     df6:	df 2e       	mov	r13, r31
     df8:	a3 e0       	ldi	r26, 0x03	; 3
     dfa:	ca 2e       	mov	r12, r26
     dfc:	0e 94 28 02 	call	0x450	; 0x450 <display_time>
     e00:	8d ec       	ldi	r24, 0xCD	; 205
     e02:	0e 94 5b 00 	call	0xb6	; 0xb6 <lcd_command_write>
     e06:	89 e5       	ldi	r24, 0x59	; 89
     e08:	91 e0       	ldi	r25, 0x01	; 1
     e0a:	0e 94 78 00 	call	0xf0	; 0xf0 <lcd_string_write>
     e0e:	ce 01       	movw	r24, r28
     e10:	8a 5a       	subi	r24, 0xAA	; 170
     e12:	9f 4f       	sbci	r25, 0xFF	; 255
     e14:	88 0f       	add	r24, r24
     e16:	99 1f       	adc	r25, r25
     e18:	0e 94 95 0e 	call	0x1d2a	; 0x1d2a <__eerd_word_m32>
     e1c:	20 91 1a 03 	lds	r18, 0x031A
     e20:	30 e0       	ldi	r19, 0x00	; 0
     e22:	b7 01       	movw	r22, r14
     e24:	0e 94 2a 0d 	call	0x1a54	; 0x1a54 <__udivmodhi4>
     e28:	26 17       	cp	r18, r22
     e2a:	37 07       	cpc	r19, r23
     e2c:	91 f4       	brne	.+36     	; 0xe52 <menu_option_runP1+0x82>
     e2e:	20 91 18 03 	lds	r18, 0x0318
     e32:	30 e0       	ldi	r19, 0x00	; 0
     e34:	28 17       	cp	r18, r24
     e36:	39 07       	cpc	r19, r25
     e38:	61 f4       	brne	.+24     	; 0xe52 <menu_option_runP1+0x82>
     e3a:	d5 ba       	out	0x15, r13	; 21
     e3c:	2f ef       	ldi	r18, 0xFF	; 255
     e3e:	89 e6       	ldi	r24, 0x69	; 105
     e40:	98 e1       	ldi	r25, 0x18	; 24
     e42:	21 50       	subi	r18, 0x01	; 1
     e44:	80 40       	sbci	r24, 0x00	; 0
     e46:	90 40       	sbci	r25, 0x00	; 0
     e48:	e1 f7       	brne	.-8      	; 0xe42 <menu_option_runP1+0x72>
     e4a:	00 c0       	rjmp	.+0      	; 0xe4c <menu_option_runP1+0x7c>
     e4c:	00 00       	nop
     e4e:	c5 ba       	out	0x15, r12	; 21
     e50:	21 96       	adiw	r28, 0x01	; 1
     e52:	0c 17       	cp	r16, r28
     e54:	1d 07       	cpc	r17, r29
     e56:	2c f0       	brlt	.+10     	; 0xe62 <menu_option_runP1+0x92>
     e58:	89 b3       	in	r24, 0x19	; 25
     e5a:	80 93 17 03 	sts	0x0317, r24
     e5e:	88 72       	andi	r24, 0x28	; 40
     e60:	69 f2       	breq	.-102    	; 0xdfc <menu_option_runP1+0x2c>
     e62:	df 91       	pop	r29
     e64:	cf 91       	pop	r28
     e66:	1f 91       	pop	r17
     e68:	0f 91       	pop	r16
     e6a:	ff 90       	pop	r15
     e6c:	ef 90       	pop	r14
     e6e:	df 90       	pop	r13
     e70:	cf 90       	pop	r12
     e72:	08 95       	ret

00000e74 <menu_option_runP2>:
     e74:	cf 92       	push	r12
     e76:	df 92       	push	r13
     e78:	ef 92       	push	r14
     e7a:	ff 92       	push	r15
     e7c:	0f 93       	push	r16
     e7e:	1f 93       	push	r17
     e80:	cf 93       	push	r28
     e82:	df 93       	push	r29
     e84:	84 e5       	ldi	r24, 0x54	; 84
     e86:	91 e0       	ldi	r25, 0x01	; 1
     e88:	0e 94 95 0e 	call	0x1d2a	; 0x1d2a <__eerd_word_m32>
     e8c:	8c 01       	movw	r16, r24
     e8e:	c0 e0       	ldi	r28, 0x00	; 0
     e90:	d0 e0       	ldi	r29, 0x00	; 0
     e92:	84 e6       	ldi	r24, 0x64	; 100
     e94:	e8 2e       	mov	r14, r24
     e96:	f1 2c       	mov	r15, r1
     e98:	96 e0       	ldi	r25, 0x06	; 6
     e9a:	d9 2e       	mov	r13, r25
     e9c:	23 e0       	ldi	r18, 0x03	; 3
     e9e:	c2 2e       	mov	r12, r18
     ea0:	0e 94 28 02 	call	0x450	; 0x450 <display_time>
     ea4:	8d ec       	ldi	r24, 0xCD	; 205
     ea6:	0e 94 5b 00 	call	0xb6	; 0xb6 <lcd_command_write>
     eaa:	8c e5       	ldi	r24, 0x5C	; 92
     eac:	91 e0       	ldi	r25, 0x01	; 1
     eae:	0e 94 78 00 	call	0xf0	; 0xf0 <lcd_string_write>
     eb2:	ce 01       	movw	r24, r28
     eb4:	85 55       	subi	r24, 0x55	; 85
     eb6:	9f 4f       	sbci	r25, 0xFF	; 255
     eb8:	88 0f       	add	r24, r24
     eba:	99 1f       	adc	r25, r25
     ebc:	0e 94 95 0e 	call	0x1d2a	; 0x1d2a <__eerd_word_m32>
     ec0:	20 91 1a 03 	lds	r18, 0x031A
     ec4:	30 e0       	ldi	r19, 0x00	; 0
     ec6:	b7 01       	movw	r22, r14
     ec8:	0e 94 2a 0d 	call	0x1a54	; 0x1a54 <__udivmodhi4>
     ecc:	26 17       	cp	r18, r22
     ece:	37 07       	cpc	r19, r23
     ed0:	91 f4       	brne	.+36     	; 0xef6 <menu_option_runP2+0x82>
     ed2:	20 91 18 03 	lds	r18, 0x0318
     ed6:	30 e0       	ldi	r19, 0x00	; 0
     ed8:	28 17       	cp	r18, r24
     eda:	39 07       	cpc	r19, r25
     edc:	61 f4       	brne	.+24     	; 0xef6 <menu_option_runP2+0x82>
     ede:	d5 ba       	out	0x15, r13	; 21
     ee0:	2f ef       	ldi	r18, 0xFF	; 255
     ee2:	89 e6       	ldi	r24, 0x69	; 105
     ee4:	98 e1       	ldi	r25, 0x18	; 24
     ee6:	21 50       	subi	r18, 0x01	; 1
     ee8:	80 40       	sbci	r24, 0x00	; 0
     eea:	90 40       	sbci	r25, 0x00	; 0
     eec:	e1 f7       	brne	.-8      	; 0xee6 <menu_option_runP2+0x72>
     eee:	00 c0       	rjmp	.+0      	; 0xef0 <menu_option_runP2+0x7c>
     ef0:	00 00       	nop
     ef2:	c5 ba       	out	0x15, r12	; 21
     ef4:	21 96       	adiw	r28, 0x01	; 1
     ef6:	0c 17       	cp	r16, r28
     ef8:	1d 07       	cpc	r17, r29
     efa:	2c f0       	brlt	.+10     	; 0xf06 <menu_option_runP2+0x92>
     efc:	89 b3       	in	r24, 0x19	; 25
     efe:	80 93 17 03 	sts	0x0317, r24
     f02:	88 71       	andi	r24, 0x18	; 24
     f04:	69 f2       	breq	.-102    	; 0xea0 <menu_option_runP2+0x2c>
     f06:	df 91       	pop	r29
     f08:	cf 91       	pop	r28
     f0a:	1f 91       	pop	r17
     f0c:	0f 91       	pop	r16
     f0e:	ff 90       	pop	r15
     f10:	ef 90       	pop	r14
     f12:	df 90       	pop	r13
     f14:	cf 90       	pop	r12
     f16:	08 95       	ret

00000f18 <main>:
     f18:	cf 93       	push	r28
     f1a:	df 93       	push	r29
     f1c:	cd b7       	in	r28, 0x3d	; 61
     f1e:	de b7       	in	r29, 0x3e	; 62
     f20:	e6 97       	sbiw	r28, 0x36	; 54
     f22:	0f b6       	in	r0, 0x3f	; 63
     f24:	f8 94       	cli
     f26:	de bf       	out	0x3e, r29	; 62
     f28:	0f be       	out	0x3f, r0	; 63
     f2a:	cd bf       	out	0x3d, r28	; 61
     f2c:	88 e1       	ldi	r24, 0x18	; 24
     f2e:	e6 e7       	ldi	r30, 0x76	; 118
     f30:	f0 e0       	ldi	r31, 0x00	; 0
     f32:	de 01       	movw	r26, r28
     f34:	59 96       	adiw	r26, 0x19	; 25
     f36:	01 90       	ld	r0, Z+
     f38:	0d 92       	st	X+, r0
     f3a:	8a 95       	dec	r24
     f3c:	e1 f7       	brne	.-8      	; 0xf36 <main+0x1e>
     f3e:	88 e1       	ldi	r24, 0x18	; 24
     f40:	ee e8       	ldi	r30, 0x8E	; 142
     f42:	f0 e0       	ldi	r31, 0x00	; 0
     f44:	de 01       	movw	r26, r28
     f46:	11 96       	adiw	r26, 0x01	; 1
     f48:	01 90       	ld	r0, Z+
     f4a:	0d 92       	st	X+, r0
     f4c:	8a 95       	dec	r24
     f4e:	e1 f7       	brne	.-8      	; 0xf48 <main+0x30>
     f50:	0e 94 65 03 	call	0x6ca	; 0x6ca <adc_init>
     f54:	9f ef       	ldi	r25, 0xFF	; 255
     f56:	91 bb       	out	0x11, r25	; 17
     f58:	87 e0       	ldi	r24, 0x07	; 7
     f5a:	87 bb       	out	0x17, r24	; 23
     f5c:	84 b3       	in	r24, 0x14	; 20
     f5e:	8c 6f       	ori	r24, 0xFC	; 252
     f60:	84 bb       	out	0x14, r24	; 20
     f62:	8a b3       	in	r24, 0x1a	; 26
     f64:	1a ba       	out	0x1a, r1	; 26
     f66:	8b b3       	in	r24, 0x1b	; 27
     f68:	9b bb       	out	0x1b, r25	; 27
     f6a:	85 e8       	ldi	r24, 0x85	; 133
     f6c:	86 b9       	out	0x06, r24	; 6
     f6e:	0e 94 ad 00 	call	0x15a	; 0x15a <twi_init>
     f72:	0e 94 6c 00 	call	0xd8	; 0xd8 <lcd_init>
     f76:	80 e8       	ldi	r24, 0x80	; 128
     f78:	0e 94 5b 00 	call	0xb6	; 0xb6 <lcd_command_write>
     f7c:	8f e5       	ldi	r24, 0x5F	; 95
     f7e:	91 e0       	ldi	r25, 0x01	; 1
     f80:	0e 94 78 00 	call	0xf0	; 0xf0 <lcd_string_write>
     f84:	80 ec       	ldi	r24, 0xC0	; 192
     f86:	0e 94 5b 00 	call	0xb6	; 0xb6 <lcd_command_write>
     f8a:	80 ec       	ldi	r24, 0xC0	; 192
     f8c:	0e 94 5b 00 	call	0xb6	; 0xb6 <lcd_command_write>
     f90:	80 e7       	ldi	r24, 0x70	; 112
     f92:	91 e0       	ldi	r25, 0x01	; 1
     f94:	0e 94 78 00 	call	0xf0	; 0xf0 <lcd_string_write>
     f98:	2f ef       	ldi	r18, 0xFF	; 255
     f9a:	81 ee       	ldi	r24, 0xE1	; 225
     f9c:	94 e0       	ldi	r25, 0x04	; 4
     f9e:	21 50       	subi	r18, 0x01	; 1
     fa0:	80 40       	sbci	r24, 0x00	; 0
     fa2:	90 40       	sbci	r25, 0x00	; 0
     fa4:	e1 f7       	brne	.-8      	; 0xf9e <main+0x86>
     fa6:	00 c0       	rjmp	.+0      	; 0xfa8 <main+0x90>
     fa8:	00 00       	nop
     faa:	81 e0       	ldi	r24, 0x01	; 1
     fac:	0e 94 5b 00 	call	0xb6	; 0xb6 <lcd_command_write>
     fb0:	61 2c       	mov	r6, r1
     fb2:	71 2c       	mov	r7, r1
     fb4:	04 e6       	ldi	r16, 0x64	; 100
     fb6:	10 e0       	ldi	r17, 0x00	; 0
     fb8:	89 b3       	in	r24, 0x19	; 25
     fba:	80 93 17 03 	sts	0x0317, r24
     fbe:	83 ff       	sbrs	r24, 3
     fc0:	25 c5       	rjmp	.+2634   	; 0x1a0c <main+0xaf4>
     fc2:	81 e0       	ldi	r24, 0x01	; 1
     fc4:	0e 94 5b 00 	call	0xb6	; 0xb6 <lcd_command_write>
     fc8:	80 e8       	ldi	r24, 0x80	; 128
     fca:	0e 94 5b 00 	call	0xb6	; 0xb6 <lcd_command_write>
     fce:	81 e8       	ldi	r24, 0x81	; 129
     fd0:	91 e0       	ldi	r25, 0x01	; 1
     fd2:	0e 94 78 00 	call	0xf0	; 0xf0 <lcd_string_write>
     fd6:	89 b3       	in	r24, 0x19	; 25
     fd8:	80 93 17 03 	sts	0x0317, r24
     fdc:	0e 94 6d 03 	call	0x6da	; 0x6da <ReadVoltage>
     fe0:	e8 2e       	mov	r14, r24
     fe2:	80 ec       	ldi	r24, 0xC0	; 192
     fe4:	0e 94 5b 00 	call	0xb6	; 0xb6 <lcd_command_write>
     fe8:	f1 2c       	mov	r15, r1
     fea:	c7 01       	movw	r24, r14
     fec:	01 97       	sbiw	r24, 0x01	; 1
     fee:	4e 97       	sbiw	r24, 0x1e	; 30
     ff0:	38 f4       	brcc	.+14     	; 0x1000 <main+0xe8>
     ff2:	82 e9       	ldi	r24, 0x92	; 146
     ff4:	91 e0       	ldi	r25, 0x01	; 1
     ff6:	0e 94 78 00 	call	0xf0	; 0xf0 <lcd_string_write>
     ffa:	44 24       	eor	r4, r4
     ffc:	43 94       	inc	r4
     ffe:	51 2c       	mov	r5, r1
    1000:	c7 01       	movw	r24, r14
    1002:	4f 97       	sbiw	r24, 0x1f	; 31
    1004:	4e 97       	sbiw	r24, 0x1e	; 30
    1006:	38 f4       	brcc	.+14     	; 0x1016 <main+0xfe>
    1008:	83 ea       	ldi	r24, 0xA3	; 163
    100a:	91 e0       	ldi	r25, 0x01	; 1
    100c:	0e 94 78 00 	call	0xf0	; 0xf0 <lcd_string_write>
    1010:	e2 e0       	ldi	r30, 0x02	; 2
    1012:	4e 2e       	mov	r4, r30
    1014:	51 2c       	mov	r5, r1
    1016:	c7 01       	movw	r24, r14
    1018:	cd 97       	sbiw	r24, 0x3d	; 61
    101a:	4e 97       	sbiw	r24, 0x1e	; 30
    101c:	38 f4       	brcc	.+14     	; 0x102c <main+0x114>
    101e:	84 eb       	ldi	r24, 0xB4	; 180
    1020:	91 e0       	ldi	r25, 0x01	; 1
    1022:	0e 94 78 00 	call	0xf0	; 0xf0 <lcd_string_write>
    1026:	73 e0       	ldi	r23, 0x03	; 3
    1028:	47 2e       	mov	r4, r23
    102a:	51 2c       	mov	r5, r1
    102c:	2b e5       	ldi	r18, 0x5B	; 91
    102e:	e2 1a       	sub	r14, r18
    1030:	f1 08       	sbc	r15, r1
    1032:	85 ea       	ldi	r24, 0xA5	; 165
    1034:	e8 16       	cp	r14, r24
    1036:	f1 04       	cpc	r15, r1
    1038:	38 f4       	brcc	.+14     	; 0x1048 <main+0x130>
    103a:	85 ec       	ldi	r24, 0xC5	; 197
    103c:	91 e0       	ldi	r25, 0x01	; 1
    103e:	0e 94 78 00 	call	0xf0	; 0xf0 <lcd_string_write>
    1042:	64 e0       	ldi	r22, 0x04	; 4
    1044:	46 2e       	mov	r4, r22
    1046:	51 2c       	mov	r5, r1
    1048:	80 91 17 03 	lds	r24, 0x0317
    104c:	81 ff       	sbrs	r24, 1
    104e:	06 c0       	rjmp	.+12     	; 0x105c <main+0x144>
    1050:	81 e0       	ldi	r24, 0x01	; 1
    1052:	0e 94 5b 00 	call	0xb6	; 0xb6 <lcd_command_write>
    1056:	41 2c       	mov	r4, r1
    1058:	51 2c       	mov	r5, r1
    105a:	ae cf       	rjmp	.-164    	; 0xfb8 <main+0xa0>
    105c:	80 ff       	sbrs	r24, 0
    105e:	bb cf       	rjmp	.-138    	; 0xfd6 <main+0xbe>
    1060:	81 e0       	ldi	r24, 0x01	; 1
    1062:	0e 94 5b 00 	call	0xb6	; 0xb6 <lcd_command_write>
    1066:	80 ec       	ldi	r24, 0xC0	; 192
    1068:	0e 94 5b 00 	call	0xb6	; 0xb6 <lcd_command_write>
    106c:	91 e0       	ldi	r25, 0x01	; 1
    106e:	49 16       	cp	r4, r25
    1070:	51 04       	cpc	r5, r1
    1072:	09 f0       	breq	.+2      	; 0x1076 <main+0x15e>
    1074:	eb c0       	rjmp	.+470    	; 0x124c <main+0x334>
    1076:	80 e8       	ldi	r24, 0x80	; 128
    1078:	0e 94 5b 00 	call	0xb6	; 0xb6 <lcd_command_write>
    107c:	86 ed       	ldi	r24, 0xD6	; 214
    107e:	91 e0       	ldi	r25, 0x01	; 1
    1080:	0e 94 78 00 	call	0xf0	; 0xf0 <lcd_string_write>
    1084:	80 ec       	ldi	r24, 0xC0	; 192
    1086:	0e 94 5b 00 	call	0xb6	; 0xb6 <lcd_command_write>
    108a:	86 ee       	ldi	r24, 0xE6	; 230
    108c:	91 e0       	ldi	r25, 0x01	; 1
    108e:	0e 94 78 00 	call	0xf0	; 0xf0 <lcd_string_write>
    1092:	89 b3       	in	r24, 0x19	; 25
    1094:	80 93 17 03 	sts	0x0317, r24
    1098:	40 e0       	ldi	r20, 0x00	; 0
    109a:	61 e0       	ldi	r22, 0x01	; 1
    109c:	82 e0       	ldi	r24, 0x02	; 2
    109e:	0e 94 74 03 	call	0x6e8	; 0x6e8 <print_hour>
    10a2:	e8 2e       	mov	r14, r24
    10a4:	80 91 17 03 	lds	r24, 0x0317
    10a8:	80 fd       	sbrc	r24, 0
    10aa:	03 c0       	rjmp	.+6      	; 0x10b2 <main+0x19a>
    10ac:	81 ff       	sbrs	r24, 1
    10ae:	f1 cf       	rjmp	.-30     	; 0x1092 <main+0x17a>
    10b0:	88 cf       	rjmp	.-240    	; 0xfc2 <main+0xaa>
    10b2:	80 e8       	ldi	r24, 0x80	; 128
    10b4:	0e 94 5b 00 	call	0xb6	; 0xb6 <lcd_command_write>
    10b8:	87 ef       	ldi	r24, 0xF7	; 247
    10ba:	91 e0       	ldi	r25, 0x01	; 1
    10bc:	0e 94 78 00 	call	0xf0	; 0xf0 <lcd_string_write>
    10c0:	89 b3       	in	r24, 0x19	; 25
    10c2:	80 93 17 03 	sts	0x0317, r24
    10c6:	40 e0       	ldi	r20, 0x00	; 0
    10c8:	64 e0       	ldi	r22, 0x04	; 4
    10ca:	82 e0       	ldi	r24, 0x02	; 2
    10cc:	0e 94 b2 03 	call	0x764	; 0x764 <print_minute>
    10d0:	f8 2e       	mov	r15, r24
    10d2:	80 91 17 03 	lds	r24, 0x0317
    10d6:	80 fd       	sbrc	r24, 0
    10d8:	06 c0       	rjmp	.+12     	; 0x10e6 <main+0x1ce>
    10da:	81 ff       	sbrs	r24, 1
    10dc:	f1 cf       	rjmp	.-30     	; 0x10c0 <main+0x1a8>
    10de:	81 e0       	ldi	r24, 0x01	; 1
    10e0:	0e 94 5b 00 	call	0xb6	; 0xb6 <lcd_command_write>
    10e4:	c8 cf       	rjmp	.-112    	; 0x1076 <main+0x15e>
    10e6:	80 e8       	ldi	r24, 0x80	; 128
    10e8:	0e 94 5b 00 	call	0xb6	; 0xb6 <lcd_command_write>
    10ec:	87 e0       	ldi	r24, 0x07	; 7
    10ee:	92 e0       	ldi	r25, 0x02	; 2
    10f0:	0e 94 78 00 	call	0xf0	; 0xf0 <lcd_string_write>
    10f4:	89 b3       	in	r24, 0x19	; 25
    10f6:	80 93 17 03 	sts	0x0317, r24
    10fa:	40 e0       	ldi	r20, 0x00	; 0
    10fc:	67 e0       	ldi	r22, 0x07	; 7
    10fe:	82 e0       	ldi	r24, 0x02	; 2
    1100:	0e 94 b2 03 	call	0x764	; 0x764 <print_minute>
    1104:	d8 2e       	mov	r13, r24
    1106:	90 91 17 03 	lds	r25, 0x0317
    110a:	90 fd       	sbrc	r25, 0
    110c:	03 c0       	rjmp	.+6      	; 0x1114 <main+0x1fc>
    110e:	91 ff       	sbrs	r25, 1
    1110:	f1 cf       	rjmp	.-30     	; 0x10f4 <main+0x1dc>
    1112:	e5 cf       	rjmp	.-54     	; 0x10de <main+0x1c6>
    1114:	40 e0       	ldi	r20, 0x00	; 0
    1116:	60 e0       	ldi	r22, 0x00	; 0
    1118:	8e 2d       	mov	r24, r14
    111a:	0e 94 ad 01 	call	0x35a	; 0x35a <ds1307_hour_write>
    111e:	8f 2d       	mov	r24, r15
    1120:	0e 94 9b 01 	call	0x336	; 0x336 <ds1307_minute_write>
    1124:	8d 2d       	mov	r24, r13
    1126:	0e 94 89 01 	call	0x312	; 0x312 <ds1307_second_write>
    112a:	80 e8       	ldi	r24, 0x80	; 128
    112c:	0e 94 5b 00 	call	0xb6	; 0xb6 <lcd_command_write>
    1130:	87 e1       	ldi	r24, 0x17	; 23
    1132:	92 e0       	ldi	r25, 0x02	; 2
    1134:	0e 94 78 00 	call	0xf0	; 0xf0 <lcd_string_write>
    1138:	80 ec       	ldi	r24, 0xC0	; 192
    113a:	0e 94 5b 00 	call	0xb6	; 0xb6 <lcd_command_write>
    113e:	86 ee       	ldi	r24, 0xE6	; 230
    1140:	91 e0       	ldi	r25, 0x01	; 1
    1142:	0e 94 78 00 	call	0xf0	; 0xf0 <lcd_string_write>
    1146:	89 b3       	in	r24, 0x19	; 25
    1148:	80 93 17 03 	sts	0x0317, r24
    114c:	40 e0       	ldi	r20, 0x00	; 0
    114e:	61 e0       	ldi	r22, 0x01	; 1
    1150:	82 e0       	ldi	r24, 0x02	; 2
    1152:	0e 94 34 04 	call	0x868	; 0x868 <print_date>
    1156:	7c 01       	movw	r14, r24
    1158:	90 91 17 03 	lds	r25, 0x0317
    115c:	89 2f       	mov	r24, r25
    115e:	82 70       	andi	r24, 0x02	; 2
    1160:	90 fd       	sbrc	r25, 0
    1162:	03 c0       	rjmp	.+6      	; 0x116a <main+0x252>
    1164:	88 23       	and	r24, r24
    1166:	79 f3       	breq	.-34     	; 0x1146 <main+0x22e>
    1168:	ba cf       	rjmp	.-140    	; 0x10de <main+0x1c6>
    116a:	81 11       	cpse	r24, r1
    116c:	2a cf       	rjmp	.-428    	; 0xfc2 <main+0xaa>
    116e:	80 e8       	ldi	r24, 0x80	; 128
    1170:	0e 94 5b 00 	call	0xb6	; 0xb6 <lcd_command_write>
    1174:	89 e2       	ldi	r24, 0x29	; 41
    1176:	92 e0       	ldi	r25, 0x02	; 2
    1178:	0e 94 78 00 	call	0xf0	; 0xf0 <lcd_string_write>
    117c:	89 b3       	in	r24, 0x19	; 25
    117e:	80 93 17 03 	sts	0x0317, r24
    1182:	40 e0       	ldi	r20, 0x00	; 0
    1184:	64 e0       	ldi	r22, 0x04	; 4
    1186:	82 e0       	ldi	r24, 0x02	; 2
    1188:	0e 94 72 04 	call	0x8e4	; 0x8e4 <print_month>
    118c:	6c 01       	movw	r12, r24
    118e:	80 91 17 03 	lds	r24, 0x0317
    1192:	80 fd       	sbrc	r24, 0
    1194:	06 c0       	rjmp	.+12     	; 0x11a2 <main+0x28a>
    1196:	81 ff       	sbrs	r24, 1
    1198:	f1 cf       	rjmp	.-30     	; 0x117c <main+0x264>
    119a:	81 e0       	ldi	r24, 0x01	; 1
    119c:	0e 94 5b 00 	call	0xb6	; 0xb6 <lcd_command_write>
    11a0:	c4 cf       	rjmp	.-120    	; 0x112a <main+0x212>
    11a2:	80 e8       	ldi	r24, 0x80	; 128
    11a4:	0e 94 5b 00 	call	0xb6	; 0xb6 <lcd_command_write>
    11a8:	8c e3       	ldi	r24, 0x3C	; 60
    11aa:	92 e0       	ldi	r25, 0x02	; 2
    11ac:	0e 94 78 00 	call	0xf0	; 0xf0 <lcd_string_write>
    11b0:	89 b3       	in	r24, 0x19	; 25
    11b2:	80 93 17 03 	sts	0x0317, r24
    11b6:	40 e0       	ldi	r20, 0x00	; 0
    11b8:	67 e0       	ldi	r22, 0x07	; 7
    11ba:	82 e0       	ldi	r24, 0x02	; 2
    11bc:	0e 94 f6 03 	call	0x7ec	; 0x7ec <print_yr>
    11c0:	5c 01       	movw	r10, r24
    11c2:	80 91 17 03 	lds	r24, 0x0317
    11c6:	80 fd       	sbrc	r24, 0
    11c8:	03 c0       	rjmp	.+6      	; 0x11d0 <main+0x2b8>
    11ca:	81 ff       	sbrs	r24, 1
    11cc:	f1 cf       	rjmp	.-30     	; 0x11b0 <main+0x298>
    11ce:	e5 cf       	rjmp	.-54     	; 0x119a <main+0x282>
    11d0:	8e 2d       	mov	r24, r14
    11d2:	0e 94 e9 01 	call	0x3d2	; 0x3d2 <ds1307_date_write>
    11d6:	8c 2d       	mov	r24, r12
    11d8:	0e 94 fb 01 	call	0x3f6	; 0x3f6 <ds1307_month_write>
    11dc:	8a 2d       	mov	r24, r10
    11de:	0e 94 0d 02 	call	0x41a	; 0x41a <ds1307_year_write>
    11e2:	f6 01       	movw	r30, r12
    11e4:	31 97       	sbiw	r30, 0x01	; 1
    11e6:	c5 01       	movw	r24, r10
    11e8:	83 70       	andi	r24, 0x03	; 3
    11ea:	99 27       	eor	r25, r25
    11ec:	ee 0f       	add	r30, r30
    11ee:	ff 1f       	adc	r31, r31
    11f0:	89 2b       	or	r24, r25
    11f2:	49 f4       	brne	.+18     	; 0x1206 <main+0x2ee>
    11f4:	81 e0       	ldi	r24, 0x01	; 1
    11f6:	90 e0       	ldi	r25, 0x00	; 0
    11f8:	8c 0f       	add	r24, r28
    11fa:	9d 1f       	adc	r25, r29
    11fc:	e8 0f       	add	r30, r24
    11fe:	f9 1f       	adc	r31, r25
    1200:	20 8d       	ldd	r18, Z+24	; 0x18
    1202:	31 8d       	ldd	r19, Z+25	; 0x19
    1204:	08 c0       	rjmp	.+16     	; 0x1216 <main+0x2fe>
    1206:	81 e0       	ldi	r24, 0x01	; 1
    1208:	90 e0       	ldi	r25, 0x00	; 0
    120a:	8c 0f       	add	r24, r28
    120c:	9d 1f       	adc	r25, r29
    120e:	e8 0f       	add	r30, r24
    1210:	f9 1f       	adc	r31, r25
    1212:	20 81       	ld	r18, Z
    1214:	31 81       	ldd	r19, Z+1	; 0x01
    1216:	2e 0d       	add	r18, r14
    1218:	3f 1d       	adc	r19, r15
    121a:	2a 0d       	add	r18, r10
    121c:	3b 1d       	adc	r19, r11
    121e:	b7 fe       	sbrs	r11, 7
    1220:	03 c0       	rjmp	.+6      	; 0x1228 <main+0x310>
    1222:	93 e0       	ldi	r25, 0x03	; 3
    1224:	a9 0e       	add	r10, r25
    1226:	b1 1c       	adc	r11, r1
    1228:	c5 01       	movw	r24, r10
    122a:	95 95       	asr	r25
    122c:	87 95       	ror	r24
    122e:	95 95       	asr	r25
    1230:	87 95       	ror	r24
    1232:	82 0f       	add	r24, r18
    1234:	93 1f       	adc	r25, r19
    1236:	06 96       	adiw	r24, 0x06	; 6
    1238:	67 e0       	ldi	r22, 0x07	; 7
    123a:	70 e0       	ldi	r23, 0x00	; 0
    123c:	0e 94 3e 0d 	call	0x1a7c	; 0x1a7c <__divmodhi4>
    1240:	8f 5f       	subi	r24, 0xFF	; 255
    1242:	0e 94 d7 01 	call	0x3ae	; 0x3ae <ds1307_day_write>
    1246:	41 2c       	mov	r4, r1
    1248:	51 2c       	mov	r5, r1
    124a:	be ce       	rjmp	.-644    	; 0xfc8 <main+0xb0>
    124c:	22 e0       	ldi	r18, 0x02	; 2
    124e:	42 16       	cp	r4, r18
    1250:	51 04       	cpc	r5, r1
    1252:	09 f0       	breq	.+2      	; 0x1256 <main+0x33e>
    1254:	3f c1       	rjmp	.+638    	; 0x14d4 <main+0x5bc>
    1256:	81 e0       	ldi	r24, 0x01	; 1
    1258:	0e 94 5b 00 	call	0xb6	; 0xb6 <lcd_command_write>
    125c:	80 e8       	ldi	r24, 0x80	; 128
    125e:	0e 94 5b 00 	call	0xb6	; 0xb6 <lcd_command_write>
    1262:	89 e4       	ldi	r24, 0x49	; 73
    1264:	92 e0       	ldi	r25, 0x02	; 2
    1266:	0e 94 78 00 	call	0xf0	; 0xf0 <lcd_string_write>
    126a:	80 ec       	ldi	r24, 0xC0	; 192
    126c:	0e 94 5b 00 	call	0xb6	; 0xb6 <lcd_command_write>
    1270:	0e 94 6d 03 	call	0x6da	; 0x6da <ReadVoltage>
    1274:	90 e0       	ldi	r25, 0x00	; 0
    1276:	29 b3       	in	r18, 0x19	; 25
    1278:	20 93 17 03 	sts	0x0317, r18
    127c:	8e 31       	cpi	r24, 0x1E	; 30
    127e:	91 05       	cpc	r25, r1
    1280:	44 f4       	brge	.+16     	; 0x1292 <main+0x37a>
    1282:	8a e5       	ldi	r24, 0x5A	; 90
    1284:	92 e0       	ldi	r25, 0x02	; 2
    1286:	0e 94 78 00 	call	0xf0	; 0xf0 <lcd_string_write>
    128a:	66 24       	eor	r6, r6
    128c:	63 94       	inc	r6
    128e:	71 2c       	mov	r7, r1
    1290:	09 c0       	rjmp	.+18     	; 0x12a4 <main+0x38c>
    1292:	4e 97       	sbiw	r24, 0x1e	; 30
    1294:	39 f0       	breq	.+14     	; 0x12a4 <main+0x38c>
    1296:	8a e6       	ldi	r24, 0x6A	; 106
    1298:	92 e0       	ldi	r25, 0x02	; 2
    129a:	0e 94 78 00 	call	0xf0	; 0xf0 <lcd_string_write>
    129e:	a2 e0       	ldi	r26, 0x02	; 2
    12a0:	6a 2e       	mov	r6, r26
    12a2:	71 2c       	mov	r7, r1
    12a4:	80 91 17 03 	lds	r24, 0x0317
    12a8:	80 fd       	sbrc	r24, 0
    12aa:	03 c0       	rjmp	.+6      	; 0x12b2 <main+0x39a>
    12ac:	81 ff       	sbrs	r24, 1
    12ae:	dd cf       	rjmp	.-70     	; 0x126a <main+0x352>
    12b0:	88 ce       	rjmp	.-752    	; 0xfc2 <main+0xaa>
    12b2:	82 e0       	ldi	r24, 0x02	; 2
    12b4:	68 16       	cp	r6, r24
    12b6:	71 04       	cpc	r7, r1
    12b8:	31 f4       	brne	.+12     	; 0x12c6 <main+0x3ae>
    12ba:	81 e0       	ldi	r24, 0x01	; 1
    12bc:	0e 94 5b 00 	call	0xb6	; 0xb6 <lcd_command_write>
    12c0:	0e 94 b4 04 	call	0x968	; 0x968 <menu_option_P0>
    12c4:	81 ce       	rjmp	.-766    	; 0xfc8 <main+0xb0>
    12c6:	91 e0       	ldi	r25, 0x01	; 1
    12c8:	69 16       	cp	r6, r25
    12ca:	71 04       	cpc	r7, r1
    12cc:	19 f0       	breq	.+6      	; 0x12d4 <main+0x3bc>
    12ce:	61 2c       	mov	r6, r1
    12d0:	71 2c       	mov	r7, r1
    12d2:	b9 cf       	rjmp	.-142    	; 0x1246 <main+0x32e>
    12d4:	80 e0       	ldi	r24, 0x00	; 0
    12d6:	90 e0       	ldi	r25, 0x00	; 0
    12d8:	0e 94 95 0e 	call	0x1d2a	; 0x1d2a <__eerd_word_m32>
    12dc:	5c 01       	movw	r10, r24
    12de:	80 ec       	ldi	r24, 0xC0	; 192
    12e0:	0e 94 5b 00 	call	0xb6	; 0xb6 <lcd_command_write>
    12e4:	8b ee       	ldi	r24, 0xEB	; 235
    12e6:	90 e0       	ldi	r25, 0x00	; 0
    12e8:	0e 94 78 00 	call	0xf0	; 0xf0 <lcd_string_write>
    12ec:	c5 01       	movw	r24, r10
    12ee:	01 97       	sbiw	r24, 0x01	; 1
    12f0:	9a ab       	std	Y+50, r25	; 0x32
    12f2:	89 ab       	std	Y+49, r24	; 0x31
    12f4:	0e 94 6d 03 	call	0x6da	; 0x6da <ReadVoltage>
    12f8:	68 2f       	mov	r22, r24
    12fa:	70 e0       	ldi	r23, 0x00	; 0
    12fc:	80 e0       	ldi	r24, 0x00	; 0
    12fe:	90 e0       	ldi	r25, 0x00	; 0
    1300:	0e 94 85 0d 	call	0x1b0a	; 0x1b0a <__floatsisf>
    1304:	29 eb       	ldi	r18, 0xB9	; 185
    1306:	38 eb       	ldi	r19, 0xB8	; 184
    1308:	48 eb       	ldi	r20, 0xB8	; 184
    130a:	5d e3       	ldi	r21, 0x3D	; 61
    130c:	0e 94 e9 0d 	call	0x1bd2	; 0x1bd2 <__mulsf3>
    1310:	0e 94 52 0d 	call	0x1aa4	; 0x1aa4 <__fixsfsi>
    1314:	7b 01       	movw	r14, r22
    1316:	77 ff       	sbrs	r23, 7
    1318:	02 c0       	rjmp	.+4      	; 0x131e <main+0x406>
    131a:	e1 2c       	mov	r14, r1
    131c:	f1 2c       	mov	r15, r1
    131e:	ea 14       	cp	r14, r10
    1320:	fb 04       	cpc	r15, r11
    1322:	14 f0       	brlt	.+4      	; 0x1328 <main+0x410>
    1324:	e9 a8       	ldd	r14, Y+49	; 0x31
    1326:	fa a8       	ldd	r15, Y+50	; 0x32
    1328:	e2 14       	cp	r14, r2
    132a:	f3 04       	cpc	r15, r3
    132c:	39 f0       	breq	.+14     	; 0x133c <main+0x424>
    132e:	80 ec       	ldi	r24, 0xC0	; 192
    1330:	0e 94 5b 00 	call	0xb6	; 0xb6 <lcd_command_write>
    1334:	8a e7       	ldi	r24, 0x7A	; 122
    1336:	92 e0       	ldi	r25, 0x02	; 2
    1338:	0e 94 78 00 	call	0xf0	; 0xf0 <lcd_string_write>
    133c:	80 e8       	ldi	r24, 0x80	; 128
    133e:	0e 94 5b 00 	call	0xb6	; 0xb6 <lcd_command_write>
    1342:	86 e8       	ldi	r24, 0x86	; 134
    1344:	92 e0       	ldi	r25, 0x02	; 2
    1346:	0e 94 78 00 	call	0xf0	; 0xf0 <lcd_string_write>
    134a:	47 01       	movw	r8, r14
    134c:	9f ef       	ldi	r25, 0xFF	; 255
    134e:	89 1a       	sub	r8, r25
    1350:	99 0a       	sbc	r9, r25
    1352:	6a e0       	ldi	r22, 0x0A	; 10
    1354:	c4 01       	movw	r24, r8
    1356:	0e 94 84 00 	call	0x108	; 0x108 <lcd_number_write>
    135a:	8f e8       	ldi	r24, 0x8F	; 143
    135c:	0e 94 5b 00 	call	0xb6	; 0xb6 <lcd_command_write>
    1360:	85 eb       	ldi	r24, 0xB5	; 181
    1362:	92 e0       	ldi	r25, 0x02	; 2
    1364:	0e 94 78 00 	call	0xf0	; 0xf0 <lcd_string_write>
    1368:	64 01       	movw	r12, r8
    136a:	cc 0c       	add	r12, r12
    136c:	dd 1c       	adc	r13, r13
    136e:	c6 01       	movw	r24, r12
    1370:	0e 94 95 0e 	call	0x1d2a	; 0x1d2a <__eerd_word_m32>
    1374:	88 3e       	cpi	r24, 0xE8	; 232
    1376:	93 40       	sbci	r25, 0x03	; 3
    1378:	88 f4       	brcc	.+34     	; 0x139c <main+0x484>
    137a:	80 ec       	ldi	r24, 0xC0	; 192
    137c:	0e 94 5b 00 	call	0xb6	; 0xb6 <lcd_command_write>
    1380:	8a ea       	ldi	r24, 0xAA	; 170
    1382:	90 e0       	ldi	r25, 0x00	; 0
    1384:	0e 94 78 00 	call	0xf0	; 0xf0 <lcd_string_write>
    1388:	c6 01       	movw	r24, r12
    138a:	0e 94 95 0e 	call	0x1d2a	; 0x1d2a <__eerd_word_m32>
    138e:	b8 01       	movw	r22, r16
    1390:	0e 94 2a 0d 	call	0x1a54	; 0x1a54 <__udivmodhi4>
    1394:	cb 01       	movw	r24, r22
    1396:	6a e0       	ldi	r22, 0x0A	; 10
    1398:	0e 94 84 00 	call	0x108	; 0x108 <lcd_number_write>
    139c:	c6 01       	movw	r24, r12
    139e:	0e 94 95 0e 	call	0x1d2a	; 0x1d2a <__eerd_word_m32>
    13a2:	88 3e       	cpi	r24, 0xE8	; 232
    13a4:	93 40       	sbci	r25, 0x03	; 3
    13a6:	68 f0       	brcs	.+26     	; 0x13c2 <main+0x4aa>
    13a8:	80 ec       	ldi	r24, 0xC0	; 192
    13aa:	0e 94 5b 00 	call	0xb6	; 0xb6 <lcd_command_write>
    13ae:	c6 01       	movw	r24, r12
    13b0:	0e 94 95 0e 	call	0x1d2a	; 0x1d2a <__eerd_word_m32>
    13b4:	b8 01       	movw	r22, r16
    13b6:	0e 94 2a 0d 	call	0x1a54	; 0x1a54 <__udivmodhi4>
    13ba:	cb 01       	movw	r24, r22
    13bc:	6a e0       	ldi	r22, 0x0A	; 10
    13be:	0e 94 84 00 	call	0x108	; 0x108 <lcd_number_write>
    13c2:	c6 01       	movw	r24, r12
    13c4:	0e 94 95 0e 	call	0x1d2a	; 0x1d2a <__eerd_word_m32>
    13c8:	b8 01       	movw	r22, r16
    13ca:	0e 94 2a 0d 	call	0x1a54	; 0x1a54 <__udivmodhi4>
    13ce:	0a 97       	sbiw	r24, 0x0a	; 10
    13d0:	80 f4       	brcc	.+32     	; 0x13f2 <main+0x4da>
    13d2:	83 ec       	ldi	r24, 0xC3	; 195
    13d4:	0e 94 5b 00 	call	0xb6	; 0xb6 <lcd_command_write>
    13d8:	8a ea       	ldi	r24, 0xAA	; 170
    13da:	90 e0       	ldi	r25, 0x00	; 0
    13dc:	0e 94 78 00 	call	0xf0	; 0xf0 <lcd_string_write>
    13e0:	c6 01       	movw	r24, r12
    13e2:	0e 94 95 0e 	call	0x1d2a	; 0x1d2a <__eerd_word_m32>
    13e6:	b8 01       	movw	r22, r16
    13e8:	0e 94 2a 0d 	call	0x1a54	; 0x1a54 <__udivmodhi4>
    13ec:	6a e0       	ldi	r22, 0x0A	; 10
    13ee:	0e 94 84 00 	call	0x108	; 0x108 <lcd_number_write>
    13f2:	c6 01       	movw	r24, r12
    13f4:	0e 94 95 0e 	call	0x1d2a	; 0x1d2a <__eerd_word_m32>
    13f8:	b8 01       	movw	r22, r16
    13fa:	0e 94 2a 0d 	call	0x1a54	; 0x1a54 <__udivmodhi4>
    13fe:	0a 97       	sbiw	r24, 0x0a	; 10
    1400:	60 f0       	brcs	.+24     	; 0x141a <main+0x502>
    1402:	83 ec       	ldi	r24, 0xC3	; 195
    1404:	0e 94 5b 00 	call	0xb6	; 0xb6 <lcd_command_write>
    1408:	c6 01       	movw	r24, r12
    140a:	0e 94 95 0e 	call	0x1d2a	; 0x1d2a <__eerd_word_m32>
    140e:	b8 01       	movw	r22, r16
    1410:	0e 94 2a 0d 	call	0x1a54	; 0x1a54 <__udivmodhi4>
    1414:	6a e0       	ldi	r22, 0x0A	; 10
    1416:	0e 94 84 00 	call	0x108	; 0x108 <lcd_number_write>
    141a:	89 e0       	ldi	r24, 0x09	; 9
    141c:	e8 16       	cp	r14, r24
    141e:	f1 04       	cpc	r15, r1
    1420:	0c f0       	brlt	.+2      	; 0x1424 <main+0x50c>
    1422:	06 c3       	rjmp	.+1548   	; 0x1a30 <main+0xb18>
    1424:	8a ec       	ldi	r24, 0xCA	; 202
    1426:	0e 94 5b 00 	call	0xb6	; 0xb6 <lcd_command_write>
    142a:	6a e0       	ldi	r22, 0x0A	; 10
    142c:	c4 01       	movw	r24, r8
    142e:	0e 94 84 00 	call	0x108	; 0x108 <lcd_number_write>
    1432:	8e ec       	ldi	r24, 0xCE	; 206
    1434:	0e 94 5b 00 	call	0xb6	; 0xb6 <lcd_command_write>
    1438:	6a e0       	ldi	r22, 0x0A	; 10
    143a:	c5 01       	movw	r24, r10
    143c:	0e 94 84 00 	call	0x108	; 0x108 <lcd_number_write>
    1440:	89 b3       	in	r24, 0x19	; 25
    1442:	80 93 17 03 	sts	0x0317, r24
    1446:	80 ff       	sbrs	r24, 0
    1448:	40 c0       	rjmp	.+128    	; 0x14ca <main+0x5b2>
    144a:	80 ec       	ldi	r24, 0xC0	; 192
    144c:	0e 94 5b 00 	call	0xb6	; 0xb6 <lcd_command_write>
    1450:	85 e9       	ldi	r24, 0x95	; 149
    1452:	92 e0       	ldi	r25, 0x02	; 2
    1454:	0e 94 78 00 	call	0xf0	; 0xf0 <lcd_string_write>
    1458:	89 b3       	in	r24, 0x19	; 25
    145a:	80 93 17 03 	sts	0x0317, r24
    145e:	40 e0       	ldi	r20, 0x00	; 0
    1460:	61 e0       	ldi	r22, 0x01	; 1
    1462:	82 e0       	ldi	r24, 0x02	; 2
    1464:	0e 94 74 03 	call	0x6e8	; 0x6e8 <print_hour>
    1468:	4c 01       	movw	r8, r24
    146a:	80 91 17 03 	lds	r24, 0x0317
    146e:	80 fd       	sbrc	r24, 0
    1470:	08 c0       	rjmp	.+16     	; 0x1482 <main+0x56a>
    1472:	81 ff       	sbrs	r24, 1
    1474:	f1 cf       	rjmp	.-30     	; 0x1458 <main+0x540>
    1476:	81 e0       	ldi	r24, 0x01	; 1
    1478:	0e 94 5b 00 	call	0xb6	; 0xb6 <lcd_command_write>
    147c:	71 01       	movw	r14, r2
    147e:	17 01       	movw	r2, r14
    1480:	39 cf       	rjmp	.-398    	; 0x12f4 <main+0x3dc>
    1482:	89 b3       	in	r24, 0x19	; 25
    1484:	80 93 17 03 	sts	0x0317, r24
    1488:	40 e0       	ldi	r20, 0x00	; 0
    148a:	64 e0       	ldi	r22, 0x04	; 4
    148c:	82 e0       	ldi	r24, 0x02	; 2
    148e:	0e 94 b2 03 	call	0x764	; 0x764 <print_minute>
    1492:	20 91 17 03 	lds	r18, 0x0317
    1496:	20 fd       	sbrc	r18, 0
    1498:	06 c0       	rjmp	.+12     	; 0x14a6 <main+0x58e>
    149a:	21 ff       	sbrs	r18, 1
    149c:	f2 cf       	rjmp	.-28     	; 0x1482 <main+0x56a>
    149e:	81 e0       	ldi	r24, 0x01	; 1
    14a0:	0e 94 5b 00 	call	0xb6	; 0xb6 <lcd_command_write>
    14a4:	d9 cf       	rjmp	.-78     	; 0x1458 <main+0x540>
    14a6:	24 e6       	ldi	r18, 0x64	; 100
    14a8:	28 9d       	mul	r18, r8
    14aa:	b0 01       	movw	r22, r0
    14ac:	29 9d       	mul	r18, r9
    14ae:	70 0d       	add	r23, r0
    14b0:	11 24       	eor	r1, r1
    14b2:	68 0f       	add	r22, r24
    14b4:	79 1f       	adc	r23, r25
    14b6:	c6 01       	movw	r24, r12
    14b8:	0e 94 9b 0e 	call	0x1d36	; 0x1d36 <__eewr_word_m32>
    14bc:	80 ec       	ldi	r24, 0xC0	; 192
    14be:	0e 94 5b 00 	call	0xb6	; 0xb6 <lcd_command_write>
    14c2:	86 ea       	ldi	r24, 0xA6	; 166
    14c4:	92 e0       	ldi	r25, 0x02	; 2
    14c6:	0e 94 78 00 	call	0xf0	; 0xf0 <lcd_string_write>
    14ca:	80 91 17 03 	lds	r24, 0x0317
    14ce:	81 ff       	sbrs	r24, 1
    14d0:	d6 cf       	rjmp	.-84     	; 0x147e <main+0x566>
    14d2:	77 cd       	rjmp	.-1298   	; 0xfc2 <main+0xaa>
    14d4:	83 e0       	ldi	r24, 0x03	; 3
    14d6:	48 16       	cp	r4, r24
    14d8:	51 04       	cpc	r5, r1
    14da:	09 f0       	breq	.+2      	; 0x14de <main+0x5c6>
    14dc:	44 c1       	rjmp	.+648    	; 0x1766 <main+0x84e>
    14de:	81 e0       	ldi	r24, 0x01	; 1
    14e0:	0e 94 5b 00 	call	0xb6	; 0xb6 <lcd_command_write>
    14e4:	80 e8       	ldi	r24, 0x80	; 128
    14e6:	0e 94 5b 00 	call	0xb6	; 0xb6 <lcd_command_write>
    14ea:	87 eb       	ldi	r24, 0xB7	; 183
    14ec:	92 e0       	ldi	r25, 0x02	; 2
    14ee:	0e 94 78 00 	call	0xf0	; 0xf0 <lcd_string_write>
    14f2:	80 ec       	ldi	r24, 0xC0	; 192
    14f4:	0e 94 5b 00 	call	0xb6	; 0xb6 <lcd_command_write>
    14f8:	0e 94 6d 03 	call	0x6da	; 0x6da <ReadVoltage>
    14fc:	90 e0       	ldi	r25, 0x00	; 0
    14fe:	29 b3       	in	r18, 0x19	; 25
    1500:	20 93 17 03 	sts	0x0317, r18
    1504:	8e 31       	cpi	r24, 0x1E	; 30
    1506:	91 05       	cpc	r25, r1
    1508:	44 f4       	brge	.+16     	; 0x151a <main+0x602>
    150a:	8a e5       	ldi	r24, 0x5A	; 90
    150c:	92 e0       	ldi	r25, 0x02	; 2
    150e:	0e 94 78 00 	call	0xf0	; 0xf0 <lcd_string_write>
    1512:	66 24       	eor	r6, r6
    1514:	63 94       	inc	r6
    1516:	71 2c       	mov	r7, r1
    1518:	09 c0       	rjmp	.+18     	; 0x152c <main+0x614>
    151a:	4e 97       	sbiw	r24, 0x1e	; 30
    151c:	39 f0       	breq	.+14     	; 0x152c <main+0x614>
    151e:	8a e6       	ldi	r24, 0x6A	; 106
    1520:	92 e0       	ldi	r25, 0x02	; 2
    1522:	0e 94 78 00 	call	0xf0	; 0xf0 <lcd_string_write>
    1526:	72 e0       	ldi	r23, 0x02	; 2
    1528:	67 2e       	mov	r6, r23
    152a:	71 2c       	mov	r7, r1
    152c:	80 91 17 03 	lds	r24, 0x0317
    1530:	80 fd       	sbrc	r24, 0
    1532:	03 c0       	rjmp	.+6      	; 0x153a <main+0x622>
    1534:	81 ff       	sbrs	r24, 1
    1536:	dd cf       	rjmp	.-70     	; 0x14f2 <main+0x5da>
    1538:	44 cd       	rjmp	.-1400   	; 0xfc2 <main+0xaa>
    153a:	92 e0       	ldi	r25, 0x02	; 2
    153c:	69 16       	cp	r6, r25
    153e:	71 04       	cpc	r7, r1
    1540:	31 f4       	brne	.+12     	; 0x154e <main+0x636>
    1542:	81 e0       	ldi	r24, 0x01	; 1
    1544:	0e 94 5b 00 	call	0xb6	; 0xb6 <lcd_command_write>
    1548:	0e 94 4f 05 	call	0xa9e	; 0xa9e <menu_option_P1>
    154c:	3d cd       	rjmp	.-1414   	; 0xfc8 <main+0xb0>
    154e:	21 e0       	ldi	r18, 0x01	; 1
    1550:	62 16       	cp	r6, r18
    1552:	71 04       	cpc	r7, r1
    1554:	09 f0       	breq	.+2      	; 0x1558 <main+0x640>
    1556:	bb ce       	rjmp	.-650    	; 0x12ce <main+0x3b6>
    1558:	8a ea       	ldi	r24, 0xAA	; 170
    155a:	90 e0       	ldi	r25, 0x00	; 0
    155c:	0e 94 95 0e 	call	0x1d2a	; 0x1d2a <__eerd_word_m32>
    1560:	5c 01       	movw	r10, r24
    1562:	80 ec       	ldi	r24, 0xC0	; 192
    1564:	0e 94 5b 00 	call	0xb6	; 0xb6 <lcd_command_write>
    1568:	8b ee       	ldi	r24, 0xEB	; 235
    156a:	90 e0       	ldi	r25, 0x00	; 0
    156c:	0e 94 78 00 	call	0xf0	; 0xf0 <lcd_string_write>
    1570:	c5 01       	movw	r24, r10
    1572:	01 97       	sbiw	r24, 0x01	; 1
    1574:	9a ab       	std	Y+50, r25	; 0x32
    1576:	89 ab       	std	Y+49, r24	; 0x31
    1578:	0e 94 6d 03 	call	0x6da	; 0x6da <ReadVoltage>
    157c:	68 2f       	mov	r22, r24
    157e:	70 e0       	ldi	r23, 0x00	; 0
    1580:	80 e0       	ldi	r24, 0x00	; 0
    1582:	90 e0       	ldi	r25, 0x00	; 0
    1584:	0e 94 85 0d 	call	0x1b0a	; 0x1b0a <__floatsisf>
    1588:	29 eb       	ldi	r18, 0xB9	; 185
    158a:	38 eb       	ldi	r19, 0xB8	; 184
    158c:	48 eb       	ldi	r20, 0xB8	; 184
    158e:	5d e3       	ldi	r21, 0x3D	; 61
    1590:	0e 94 e9 0d 	call	0x1bd2	; 0x1bd2 <__mulsf3>
    1594:	0e 94 52 0d 	call	0x1aa4	; 0x1aa4 <__fixsfsi>
    1598:	6b 01       	movw	r12, r22
    159a:	77 ff       	sbrs	r23, 7
    159c:	02 c0       	rjmp	.+4      	; 0x15a2 <main+0x68a>
    159e:	c1 2c       	mov	r12, r1
    15a0:	d1 2c       	mov	r13, r1
    15a2:	ca 14       	cp	r12, r10
    15a4:	db 04       	cpc	r13, r11
    15a6:	14 f0       	brlt	.+4      	; 0x15ac <main+0x694>
    15a8:	c9 a8       	ldd	r12, Y+49	; 0x31
    15aa:	da a8       	ldd	r13, Y+50	; 0x32
    15ac:	8b a9       	ldd	r24, Y+51	; 0x33
    15ae:	9c a9       	ldd	r25, Y+52	; 0x34
    15b0:	c8 16       	cp	r12, r24
    15b2:	d9 06       	cpc	r13, r25
    15b4:	39 f0       	breq	.+14     	; 0x15c4 <main+0x6ac>
    15b6:	80 ec       	ldi	r24, 0xC0	; 192
    15b8:	0e 94 5b 00 	call	0xb6	; 0xb6 <lcd_command_write>
    15bc:	8a e7       	ldi	r24, 0x7A	; 122
    15be:	92 e0       	ldi	r25, 0x02	; 2
    15c0:	0e 94 78 00 	call	0xf0	; 0xf0 <lcd_string_write>
    15c4:	80 e8       	ldi	r24, 0x80	; 128
    15c6:	0e 94 5b 00 	call	0xb6	; 0xb6 <lcd_command_write>
    15ca:	88 ec       	ldi	r24, 0xC8	; 200
    15cc:	92 e0       	ldi	r25, 0x02	; 2
    15ce:	0e 94 78 00 	call	0xf0	; 0xf0 <lcd_string_write>
    15d2:	46 01       	movw	r8, r12
    15d4:	9f ef       	ldi	r25, 0xFF	; 255
    15d6:	89 1a       	sub	r8, r25
    15d8:	99 0a       	sbc	r9, r25
    15da:	6a e0       	ldi	r22, 0x0A	; 10
    15dc:	c4 01       	movw	r24, r8
    15de:	0e 94 84 00 	call	0x108	; 0x108 <lcd_number_write>
    15e2:	8f e8       	ldi	r24, 0x8F	; 143
    15e4:	0e 94 5b 00 	call	0xb6	; 0xb6 <lcd_command_write>
    15e8:	85 eb       	ldi	r24, 0xB5	; 181
    15ea:	92 e0       	ldi	r25, 0x02	; 2
    15ec:	0e 94 78 00 	call	0xf0	; 0xf0 <lcd_string_write>
    15f0:	76 01       	movw	r14, r12
    15f2:	26 e5       	ldi	r18, 0x56	; 86
    15f4:	e2 0e       	add	r14, r18
    15f6:	f1 1c       	adc	r15, r1
    15f8:	ee 0c       	add	r14, r14
    15fa:	ff 1c       	adc	r15, r15
    15fc:	c7 01       	movw	r24, r14
    15fe:	0e 94 95 0e 	call	0x1d2a	; 0x1d2a <__eerd_word_m32>
    1602:	88 3e       	cpi	r24, 0xE8	; 232
    1604:	93 40       	sbci	r25, 0x03	; 3
    1606:	88 f4       	brcc	.+34     	; 0x162a <main+0x712>
    1608:	80 ec       	ldi	r24, 0xC0	; 192
    160a:	0e 94 5b 00 	call	0xb6	; 0xb6 <lcd_command_write>
    160e:	8a ea       	ldi	r24, 0xAA	; 170
    1610:	90 e0       	ldi	r25, 0x00	; 0
    1612:	0e 94 78 00 	call	0xf0	; 0xf0 <lcd_string_write>
    1616:	c7 01       	movw	r24, r14
    1618:	0e 94 95 0e 	call	0x1d2a	; 0x1d2a <__eerd_word_m32>
    161c:	b8 01       	movw	r22, r16
    161e:	0e 94 2a 0d 	call	0x1a54	; 0x1a54 <__udivmodhi4>
    1622:	cb 01       	movw	r24, r22
    1624:	6a e0       	ldi	r22, 0x0A	; 10
    1626:	0e 94 84 00 	call	0x108	; 0x108 <lcd_number_write>
    162a:	c7 01       	movw	r24, r14
    162c:	0e 94 95 0e 	call	0x1d2a	; 0x1d2a <__eerd_word_m32>
    1630:	88 3e       	cpi	r24, 0xE8	; 232
    1632:	93 40       	sbci	r25, 0x03	; 3
    1634:	68 f0       	brcs	.+26     	; 0x1650 <main+0x738>
    1636:	80 ec       	ldi	r24, 0xC0	; 192
    1638:	0e 94 5b 00 	call	0xb6	; 0xb6 <lcd_command_write>
    163c:	c7 01       	movw	r24, r14
    163e:	0e 94 95 0e 	call	0x1d2a	; 0x1d2a <__eerd_word_m32>
    1642:	b8 01       	movw	r22, r16
    1644:	0e 94 2a 0d 	call	0x1a54	; 0x1a54 <__udivmodhi4>
    1648:	cb 01       	movw	r24, r22
    164a:	6a e0       	ldi	r22, 0x0A	; 10
    164c:	0e 94 84 00 	call	0x108	; 0x108 <lcd_number_write>
    1650:	c7 01       	movw	r24, r14
    1652:	0e 94 95 0e 	call	0x1d2a	; 0x1d2a <__eerd_word_m32>
    1656:	b8 01       	movw	r22, r16
    1658:	0e 94 2a 0d 	call	0x1a54	; 0x1a54 <__udivmodhi4>
    165c:	0a 97       	sbiw	r24, 0x0a	; 10
    165e:	80 f4       	brcc	.+32     	; 0x1680 <main+0x768>
    1660:	83 ec       	ldi	r24, 0xC3	; 195
    1662:	0e 94 5b 00 	call	0xb6	; 0xb6 <lcd_command_write>
    1666:	8a ea       	ldi	r24, 0xAA	; 170
    1668:	90 e0       	ldi	r25, 0x00	; 0
    166a:	0e 94 78 00 	call	0xf0	; 0xf0 <lcd_string_write>
    166e:	c7 01       	movw	r24, r14
    1670:	0e 94 95 0e 	call	0x1d2a	; 0x1d2a <__eerd_word_m32>
    1674:	b8 01       	movw	r22, r16
    1676:	0e 94 2a 0d 	call	0x1a54	; 0x1a54 <__udivmodhi4>
    167a:	6a e0       	ldi	r22, 0x0A	; 10
    167c:	0e 94 84 00 	call	0x108	; 0x108 <lcd_number_write>
    1680:	c7 01       	movw	r24, r14
    1682:	0e 94 95 0e 	call	0x1d2a	; 0x1d2a <__eerd_word_m32>
    1686:	b8 01       	movw	r22, r16
    1688:	0e 94 2a 0d 	call	0x1a54	; 0x1a54 <__udivmodhi4>
    168c:	0a 97       	sbiw	r24, 0x0a	; 10
    168e:	60 f0       	brcs	.+24     	; 0x16a8 <main+0x790>
    1690:	83 ec       	ldi	r24, 0xC3	; 195
    1692:	0e 94 5b 00 	call	0xb6	; 0xb6 <lcd_command_write>
    1696:	c7 01       	movw	r24, r14
    1698:	0e 94 95 0e 	call	0x1d2a	; 0x1d2a <__eerd_word_m32>
    169c:	b8 01       	movw	r22, r16
    169e:	0e 94 2a 0d 	call	0x1a54	; 0x1a54 <__udivmodhi4>
    16a2:	6a e0       	ldi	r22, 0x0A	; 10
    16a4:	0e 94 84 00 	call	0x108	; 0x108 <lcd_number_write>
    16a8:	89 e0       	ldi	r24, 0x09	; 9
    16aa:	c8 16       	cp	r12, r24
    16ac:	d1 04       	cpc	r13, r1
    16ae:	0c f0       	brlt	.+2      	; 0x16b2 <main+0x79a>
    16b0:	c1 c1       	rjmp	.+898    	; 0x1a34 <main+0xb1c>
    16b2:	8a ec       	ldi	r24, 0xCA	; 202
    16b4:	0e 94 5b 00 	call	0xb6	; 0xb6 <lcd_command_write>
    16b8:	6a e0       	ldi	r22, 0x0A	; 10
    16ba:	c4 01       	movw	r24, r8
    16bc:	0e 94 84 00 	call	0x108	; 0x108 <lcd_number_write>
    16c0:	8e ec       	ldi	r24, 0xCE	; 206
    16c2:	0e 94 5b 00 	call	0xb6	; 0xb6 <lcd_command_write>
    16c6:	6a e0       	ldi	r22, 0x0A	; 10
    16c8:	c5 01       	movw	r24, r10
    16ca:	0e 94 84 00 	call	0x108	; 0x108 <lcd_number_write>
    16ce:	89 b3       	in	r24, 0x19	; 25
    16d0:	80 93 17 03 	sts	0x0317, r24
    16d4:	80 ff       	sbrs	r24, 0
    16d6:	42 c0       	rjmp	.+132    	; 0x175c <main+0x844>
    16d8:	80 ec       	ldi	r24, 0xC0	; 192
    16da:	0e 94 5b 00 	call	0xb6	; 0xb6 <lcd_command_write>
    16de:	85 e9       	ldi	r24, 0x95	; 149
    16e0:	92 e0       	ldi	r25, 0x02	; 2
    16e2:	0e 94 78 00 	call	0xf0	; 0xf0 <lcd_string_write>
    16e6:	89 b3       	in	r24, 0x19	; 25
    16e8:	80 93 17 03 	sts	0x0317, r24
    16ec:	40 e0       	ldi	r20, 0x00	; 0
    16ee:	61 e0       	ldi	r22, 0x01	; 1
    16f0:	82 e0       	ldi	r24, 0x02	; 2
    16f2:	0e 94 74 03 	call	0x6e8	; 0x6e8 <print_hour>
    16f6:	4c 01       	movw	r8, r24
    16f8:	80 91 17 03 	lds	r24, 0x0317
    16fc:	80 fd       	sbrc	r24, 0
    16fe:	0a c0       	rjmp	.+20     	; 0x1714 <main+0x7fc>
    1700:	81 ff       	sbrs	r24, 1
    1702:	f1 cf       	rjmp	.-30     	; 0x16e6 <main+0x7ce>
    1704:	81 e0       	ldi	r24, 0x01	; 1
    1706:	0e 94 5b 00 	call	0xb6	; 0xb6 <lcd_command_write>
    170a:	cb a8       	ldd	r12, Y+51	; 0x33
    170c:	dc a8       	ldd	r13, Y+52	; 0x34
    170e:	dc aa       	std	Y+52, r13	; 0x34
    1710:	cb aa       	std	Y+51, r12	; 0x33
    1712:	32 cf       	rjmp	.-412    	; 0x1578 <main+0x660>
    1714:	89 b3       	in	r24, 0x19	; 25
    1716:	80 93 17 03 	sts	0x0317, r24
    171a:	40 e0       	ldi	r20, 0x00	; 0
    171c:	64 e0       	ldi	r22, 0x04	; 4
    171e:	82 e0       	ldi	r24, 0x02	; 2
    1720:	0e 94 b2 03 	call	0x764	; 0x764 <print_minute>
    1724:	20 91 17 03 	lds	r18, 0x0317
    1728:	20 fd       	sbrc	r18, 0
    172a:	06 c0       	rjmp	.+12     	; 0x1738 <main+0x820>
    172c:	21 ff       	sbrs	r18, 1
    172e:	f2 cf       	rjmp	.-28     	; 0x1714 <main+0x7fc>
    1730:	81 e0       	ldi	r24, 0x01	; 1
    1732:	0e 94 5b 00 	call	0xb6	; 0xb6 <lcd_command_write>
    1736:	d7 cf       	rjmp	.-82     	; 0x16e6 <main+0x7ce>
    1738:	24 e6       	ldi	r18, 0x64	; 100
    173a:	28 9d       	mul	r18, r8
    173c:	b0 01       	movw	r22, r0
    173e:	29 9d       	mul	r18, r9
    1740:	70 0d       	add	r23, r0
    1742:	11 24       	eor	r1, r1
    1744:	68 0f       	add	r22, r24
    1746:	79 1f       	adc	r23, r25
    1748:	c7 01       	movw	r24, r14
    174a:	0e 94 9b 0e 	call	0x1d36	; 0x1d36 <__eewr_word_m32>
    174e:	80 ec       	ldi	r24, 0xC0	; 192
    1750:	0e 94 5b 00 	call	0xb6	; 0xb6 <lcd_command_write>
    1754:	86 ea       	ldi	r24, 0xA6	; 166
    1756:	92 e0       	ldi	r25, 0x02	; 2
    1758:	0e 94 78 00 	call	0xf0	; 0xf0 <lcd_string_write>
    175c:	80 91 17 03 	lds	r24, 0x0317
    1760:	81 ff       	sbrs	r24, 1
    1762:	d5 cf       	rjmp	.-86     	; 0x170e <main+0x7f6>
    1764:	2e cc       	rjmp	.-1956   	; 0xfc2 <main+0xaa>
    1766:	84 e0       	ldi	r24, 0x04	; 4
    1768:	48 16       	cp	r4, r24
    176a:	51 04       	cpc	r5, r1
    176c:	09 f0       	breq	.+2      	; 0x1770 <main+0x858>
    176e:	44 c1       	rjmp	.+648    	; 0x19f8 <main+0xae0>
    1770:	81 e0       	ldi	r24, 0x01	; 1
    1772:	0e 94 5b 00 	call	0xb6	; 0xb6 <lcd_command_write>
    1776:	80 e8       	ldi	r24, 0x80	; 128
    1778:	0e 94 5b 00 	call	0xb6	; 0xb6 <lcd_command_write>
    177c:	87 ed       	ldi	r24, 0xD7	; 215
    177e:	92 e0       	ldi	r25, 0x02	; 2
    1780:	0e 94 78 00 	call	0xf0	; 0xf0 <lcd_string_write>
    1784:	80 ec       	ldi	r24, 0xC0	; 192
    1786:	0e 94 5b 00 	call	0xb6	; 0xb6 <lcd_command_write>
    178a:	0e 94 6d 03 	call	0x6da	; 0x6da <ReadVoltage>
    178e:	90 e0       	ldi	r25, 0x00	; 0
    1790:	29 b3       	in	r18, 0x19	; 25
    1792:	20 93 17 03 	sts	0x0317, r18
    1796:	8e 31       	cpi	r24, 0x1E	; 30
    1798:	91 05       	cpc	r25, r1
    179a:	44 f4       	brge	.+16     	; 0x17ac <main+0x894>
    179c:	8a e5       	ldi	r24, 0x5A	; 90
    179e:	92 e0       	ldi	r25, 0x02	; 2
    17a0:	0e 94 78 00 	call	0xf0	; 0xf0 <lcd_string_write>
    17a4:	66 24       	eor	r6, r6
    17a6:	63 94       	inc	r6
    17a8:	71 2c       	mov	r7, r1
    17aa:	09 c0       	rjmp	.+18     	; 0x17be <main+0x8a6>
    17ac:	4e 97       	sbiw	r24, 0x1e	; 30
    17ae:	39 f0       	breq	.+14     	; 0x17be <main+0x8a6>
    17b0:	8a e6       	ldi	r24, 0x6A	; 106
    17b2:	92 e0       	ldi	r25, 0x02	; 2
    17b4:	0e 94 78 00 	call	0xf0	; 0xf0 <lcd_string_write>
    17b8:	42 e0       	ldi	r20, 0x02	; 2
    17ba:	64 2e       	mov	r6, r20
    17bc:	71 2c       	mov	r7, r1
    17be:	80 91 17 03 	lds	r24, 0x0317
    17c2:	80 fd       	sbrc	r24, 0
    17c4:	03 c0       	rjmp	.+6      	; 0x17cc <main+0x8b4>
    17c6:	81 ff       	sbrs	r24, 1
    17c8:	dd cf       	rjmp	.-70     	; 0x1784 <main+0x86c>
    17ca:	fb cb       	rjmp	.-2058   	; 0xfc2 <main+0xaa>
    17cc:	92 e0       	ldi	r25, 0x02	; 2
    17ce:	69 16       	cp	r6, r25
    17d0:	71 04       	cpc	r7, r1
    17d2:	31 f4       	brne	.+12     	; 0x17e0 <main+0x8c8>
    17d4:	81 e0       	ldi	r24, 0x01	; 1
    17d6:	0e 94 5b 00 	call	0xb6	; 0xb6 <lcd_command_write>
    17da:	0e 94 ef 05 	call	0xbde	; 0xbde <menu_option_P2>
    17de:	f4 cb       	rjmp	.-2072   	; 0xfc8 <main+0xb0>
    17e0:	21 e0       	ldi	r18, 0x01	; 1
    17e2:	62 16       	cp	r6, r18
    17e4:	71 04       	cpc	r7, r1
    17e6:	09 f0       	breq	.+2      	; 0x17ea <main+0x8d2>
    17e8:	72 cd       	rjmp	.-1308   	; 0x12ce <main+0x3b6>
    17ea:	84 e5       	ldi	r24, 0x54	; 84
    17ec:	91 e0       	ldi	r25, 0x01	; 1
    17ee:	0e 94 95 0e 	call	0x1d2a	; 0x1d2a <__eerd_word_m32>
    17f2:	5c 01       	movw	r10, r24
    17f4:	80 ec       	ldi	r24, 0xC0	; 192
    17f6:	0e 94 5b 00 	call	0xb6	; 0xb6 <lcd_command_write>
    17fa:	8b ee       	ldi	r24, 0xEB	; 235
    17fc:	90 e0       	ldi	r25, 0x00	; 0
    17fe:	0e 94 78 00 	call	0xf0	; 0xf0 <lcd_string_write>
    1802:	c5 01       	movw	r24, r10
    1804:	01 97       	sbiw	r24, 0x01	; 1
    1806:	9a ab       	std	Y+50, r25	; 0x32
    1808:	89 ab       	std	Y+49, r24	; 0x31
    180a:	0e 94 6d 03 	call	0x6da	; 0x6da <ReadVoltage>
    180e:	68 2f       	mov	r22, r24
    1810:	70 e0       	ldi	r23, 0x00	; 0
    1812:	80 e0       	ldi	r24, 0x00	; 0
    1814:	90 e0       	ldi	r25, 0x00	; 0
    1816:	0e 94 85 0d 	call	0x1b0a	; 0x1b0a <__floatsisf>
    181a:	29 eb       	ldi	r18, 0xB9	; 185
    181c:	38 eb       	ldi	r19, 0xB8	; 184
    181e:	48 eb       	ldi	r20, 0xB8	; 184
    1820:	5d e3       	ldi	r21, 0x3D	; 61
    1822:	0e 94 e9 0d 	call	0x1bd2	; 0x1bd2 <__mulsf3>
    1826:	0e 94 52 0d 	call	0x1aa4	; 0x1aa4 <__fixsfsi>
    182a:	6b 01       	movw	r12, r22
    182c:	77 ff       	sbrs	r23, 7
    182e:	02 c0       	rjmp	.+4      	; 0x1834 <main+0x91c>
    1830:	c1 2c       	mov	r12, r1
    1832:	d1 2c       	mov	r13, r1
    1834:	ca 14       	cp	r12, r10
    1836:	db 04       	cpc	r13, r11
    1838:	14 f0       	brlt	.+4      	; 0x183e <main+0x926>
    183a:	c9 a8       	ldd	r12, Y+49	; 0x31
    183c:	da a8       	ldd	r13, Y+50	; 0x32
    183e:	8d a9       	ldd	r24, Y+53	; 0x35
    1840:	9e a9       	ldd	r25, Y+54	; 0x36
    1842:	c8 16       	cp	r12, r24
    1844:	d9 06       	cpc	r13, r25
    1846:	39 f0       	breq	.+14     	; 0x1856 <main+0x93e>
    1848:	80 ec       	ldi	r24, 0xC0	; 192
    184a:	0e 94 5b 00 	call	0xb6	; 0xb6 <lcd_command_write>
    184e:	8a e7       	ldi	r24, 0x7A	; 122
    1850:	92 e0       	ldi	r25, 0x02	; 2
    1852:	0e 94 78 00 	call	0xf0	; 0xf0 <lcd_string_write>
    1856:	80 e8       	ldi	r24, 0x80	; 128
    1858:	0e 94 5b 00 	call	0xb6	; 0xb6 <lcd_command_write>
    185c:	88 ee       	ldi	r24, 0xE8	; 232
    185e:	92 e0       	ldi	r25, 0x02	; 2
    1860:	0e 94 78 00 	call	0xf0	; 0xf0 <lcd_string_write>
    1864:	46 01       	movw	r8, r12
    1866:	9f ef       	ldi	r25, 0xFF	; 255
    1868:	89 1a       	sub	r8, r25
    186a:	99 0a       	sbc	r9, r25
    186c:	6a e0       	ldi	r22, 0x0A	; 10
    186e:	c4 01       	movw	r24, r8
    1870:	0e 94 84 00 	call	0x108	; 0x108 <lcd_number_write>
    1874:	8f e8       	ldi	r24, 0x8F	; 143
    1876:	0e 94 5b 00 	call	0xb6	; 0xb6 <lcd_command_write>
    187a:	85 eb       	ldi	r24, 0xB5	; 181
    187c:	92 e0       	ldi	r25, 0x02	; 2
    187e:	0e 94 78 00 	call	0xf0	; 0xf0 <lcd_string_write>
    1882:	76 01       	movw	r14, r12
    1884:	2b ea       	ldi	r18, 0xAB	; 171
    1886:	e2 0e       	add	r14, r18
    1888:	f1 1c       	adc	r15, r1
    188a:	ee 0c       	add	r14, r14
    188c:	ff 1c       	adc	r15, r15
    188e:	c7 01       	movw	r24, r14
    1890:	0e 94 95 0e 	call	0x1d2a	; 0x1d2a <__eerd_word_m32>
    1894:	88 3e       	cpi	r24, 0xE8	; 232
    1896:	93 40       	sbci	r25, 0x03	; 3
    1898:	88 f4       	brcc	.+34     	; 0x18bc <main+0x9a4>
    189a:	80 ec       	ldi	r24, 0xC0	; 192
    189c:	0e 94 5b 00 	call	0xb6	; 0xb6 <lcd_command_write>
    18a0:	8a ea       	ldi	r24, 0xAA	; 170
    18a2:	90 e0       	ldi	r25, 0x00	; 0
    18a4:	0e 94 78 00 	call	0xf0	; 0xf0 <lcd_string_write>
    18a8:	c7 01       	movw	r24, r14
    18aa:	0e 94 95 0e 	call	0x1d2a	; 0x1d2a <__eerd_word_m32>
    18ae:	b8 01       	movw	r22, r16
    18b0:	0e 94 2a 0d 	call	0x1a54	; 0x1a54 <__udivmodhi4>
    18b4:	cb 01       	movw	r24, r22
    18b6:	6a e0       	ldi	r22, 0x0A	; 10
    18b8:	0e 94 84 00 	call	0x108	; 0x108 <lcd_number_write>
    18bc:	c7 01       	movw	r24, r14
    18be:	0e 94 95 0e 	call	0x1d2a	; 0x1d2a <__eerd_word_m32>
    18c2:	88 3e       	cpi	r24, 0xE8	; 232
    18c4:	93 40       	sbci	r25, 0x03	; 3
    18c6:	68 f0       	brcs	.+26     	; 0x18e2 <main+0x9ca>
    18c8:	80 ec       	ldi	r24, 0xC0	; 192
    18ca:	0e 94 5b 00 	call	0xb6	; 0xb6 <lcd_command_write>
    18ce:	c7 01       	movw	r24, r14
    18d0:	0e 94 95 0e 	call	0x1d2a	; 0x1d2a <__eerd_word_m32>
    18d4:	b8 01       	movw	r22, r16
    18d6:	0e 94 2a 0d 	call	0x1a54	; 0x1a54 <__udivmodhi4>
    18da:	cb 01       	movw	r24, r22
    18dc:	6a e0       	ldi	r22, 0x0A	; 10
    18de:	0e 94 84 00 	call	0x108	; 0x108 <lcd_number_write>
    18e2:	c7 01       	movw	r24, r14
    18e4:	0e 94 95 0e 	call	0x1d2a	; 0x1d2a <__eerd_word_m32>
    18e8:	b8 01       	movw	r22, r16
    18ea:	0e 94 2a 0d 	call	0x1a54	; 0x1a54 <__udivmodhi4>
    18ee:	0a 97       	sbiw	r24, 0x0a	; 10
    18f0:	80 f4       	brcc	.+32     	; 0x1912 <main+0x9fa>
    18f2:	83 ec       	ldi	r24, 0xC3	; 195
    18f4:	0e 94 5b 00 	call	0xb6	; 0xb6 <lcd_command_write>
    18f8:	8a ea       	ldi	r24, 0xAA	; 170
    18fa:	90 e0       	ldi	r25, 0x00	; 0
    18fc:	0e 94 78 00 	call	0xf0	; 0xf0 <lcd_string_write>
    1900:	c7 01       	movw	r24, r14
    1902:	0e 94 95 0e 	call	0x1d2a	; 0x1d2a <__eerd_word_m32>
    1906:	b8 01       	movw	r22, r16
    1908:	0e 94 2a 0d 	call	0x1a54	; 0x1a54 <__udivmodhi4>
    190c:	6a e0       	ldi	r22, 0x0A	; 10
    190e:	0e 94 84 00 	call	0x108	; 0x108 <lcd_number_write>
    1912:	c7 01       	movw	r24, r14
    1914:	0e 94 95 0e 	call	0x1d2a	; 0x1d2a <__eerd_word_m32>
    1918:	b8 01       	movw	r22, r16
    191a:	0e 94 2a 0d 	call	0x1a54	; 0x1a54 <__udivmodhi4>
    191e:	0a 97       	sbiw	r24, 0x0a	; 10
    1920:	60 f0       	brcs	.+24     	; 0x193a <main+0xa22>
    1922:	83 ec       	ldi	r24, 0xC3	; 195
    1924:	0e 94 5b 00 	call	0xb6	; 0xb6 <lcd_command_write>
    1928:	c7 01       	movw	r24, r14
    192a:	0e 94 95 0e 	call	0x1d2a	; 0x1d2a <__eerd_word_m32>
    192e:	b8 01       	movw	r22, r16
    1930:	0e 94 2a 0d 	call	0x1a54	; 0x1a54 <__udivmodhi4>
    1934:	6a e0       	ldi	r22, 0x0A	; 10
    1936:	0e 94 84 00 	call	0x108	; 0x108 <lcd_number_write>
    193a:	89 e0       	ldi	r24, 0x09	; 9
    193c:	c8 16       	cp	r12, r24
    193e:	d1 04       	cpc	r13, r1
    1940:	0c f0       	brlt	.+2      	; 0x1944 <main+0xa2c>
    1942:	7a c0       	rjmp	.+244    	; 0x1a38 <main+0xb20>
    1944:	8a ec       	ldi	r24, 0xCA	; 202
    1946:	0e 94 5b 00 	call	0xb6	; 0xb6 <lcd_command_write>
    194a:	6a e0       	ldi	r22, 0x0A	; 10
    194c:	c4 01       	movw	r24, r8
    194e:	0e 94 84 00 	call	0x108	; 0x108 <lcd_number_write>
    1952:	8e ec       	ldi	r24, 0xCE	; 206
    1954:	0e 94 5b 00 	call	0xb6	; 0xb6 <lcd_command_write>
    1958:	6a e0       	ldi	r22, 0x0A	; 10
    195a:	c5 01       	movw	r24, r10
    195c:	0e 94 84 00 	call	0x108	; 0x108 <lcd_number_write>
    1960:	89 b3       	in	r24, 0x19	; 25
    1962:	80 93 17 03 	sts	0x0317, r24
    1966:	80 ff       	sbrs	r24, 0
    1968:	42 c0       	rjmp	.+132    	; 0x19ee <main+0xad6>
    196a:	80 ec       	ldi	r24, 0xC0	; 192
    196c:	0e 94 5b 00 	call	0xb6	; 0xb6 <lcd_command_write>
    1970:	85 e9       	ldi	r24, 0x95	; 149
    1972:	92 e0       	ldi	r25, 0x02	; 2
    1974:	0e 94 78 00 	call	0xf0	; 0xf0 <lcd_string_write>
    1978:	89 b3       	in	r24, 0x19	; 25
    197a:	80 93 17 03 	sts	0x0317, r24
    197e:	40 e0       	ldi	r20, 0x00	; 0
    1980:	61 e0       	ldi	r22, 0x01	; 1
    1982:	82 e0       	ldi	r24, 0x02	; 2
    1984:	0e 94 74 03 	call	0x6e8	; 0x6e8 <print_hour>
    1988:	4c 01       	movw	r8, r24
    198a:	80 91 17 03 	lds	r24, 0x0317
    198e:	80 fd       	sbrc	r24, 0
    1990:	0a c0       	rjmp	.+20     	; 0x19a6 <main+0xa8e>
    1992:	81 ff       	sbrs	r24, 1
    1994:	f1 cf       	rjmp	.-30     	; 0x1978 <main+0xa60>
    1996:	81 e0       	ldi	r24, 0x01	; 1
    1998:	0e 94 5b 00 	call	0xb6	; 0xb6 <lcd_command_write>
    199c:	cd a8       	ldd	r12, Y+53	; 0x35
    199e:	de a8       	ldd	r13, Y+54	; 0x36
    19a0:	de aa       	std	Y+54, r13	; 0x36
    19a2:	cd aa       	std	Y+53, r12	; 0x35
    19a4:	32 cf       	rjmp	.-412    	; 0x180a <main+0x8f2>
    19a6:	89 b3       	in	r24, 0x19	; 25
    19a8:	80 93 17 03 	sts	0x0317, r24
    19ac:	40 e0       	ldi	r20, 0x00	; 0
    19ae:	64 e0       	ldi	r22, 0x04	; 4
    19b0:	82 e0       	ldi	r24, 0x02	; 2
    19b2:	0e 94 b2 03 	call	0x764	; 0x764 <print_minute>
    19b6:	20 91 17 03 	lds	r18, 0x0317
    19ba:	20 fd       	sbrc	r18, 0
    19bc:	06 c0       	rjmp	.+12     	; 0x19ca <main+0xab2>
    19be:	21 ff       	sbrs	r18, 1
    19c0:	f2 cf       	rjmp	.-28     	; 0x19a6 <main+0xa8e>
    19c2:	81 e0       	ldi	r24, 0x01	; 1
    19c4:	0e 94 5b 00 	call	0xb6	; 0xb6 <lcd_command_write>
    19c8:	d7 cf       	rjmp	.-82     	; 0x1978 <main+0xa60>
    19ca:	24 e6       	ldi	r18, 0x64	; 100
    19cc:	28 9d       	mul	r18, r8
    19ce:	b0 01       	movw	r22, r0
    19d0:	29 9d       	mul	r18, r9
    19d2:	70 0d       	add	r23, r0
    19d4:	11 24       	eor	r1, r1
    19d6:	68 0f       	add	r22, r24
    19d8:	79 1f       	adc	r23, r25
    19da:	c7 01       	movw	r24, r14
    19dc:	0e 94 9b 0e 	call	0x1d36	; 0x1d36 <__eewr_word_m32>
    19e0:	80 ec       	ldi	r24, 0xC0	; 192
    19e2:	0e 94 5b 00 	call	0xb6	; 0xb6 <lcd_command_write>
    19e6:	86 ea       	ldi	r24, 0xA6	; 166
    19e8:	92 e0       	ldi	r25, 0x02	; 2
    19ea:	0e 94 78 00 	call	0xf0	; 0xf0 <lcd_string_write>
    19ee:	80 91 17 03 	lds	r24, 0x0317
    19f2:	81 ff       	sbrs	r24, 1
    19f4:	d5 cf       	rjmp	.-86     	; 0x19a0 <main+0xa88>
    19f6:	e5 ca       	rjmp	.-2614   	; 0xfc2 <main+0xaa>
    19f8:	81 e0       	ldi	r24, 0x01	; 1
    19fa:	0e 94 5b 00 	call	0xb6	; 0xb6 <lcd_command_write>
    19fe:	80 91 17 03 	lds	r24, 0x0317
    1a02:	81 ff       	sbrs	r24, 1
    1a04:	e8 ca       	rjmp	.-2608   	; 0xfd6 <main+0xbe>
    1a06:	81 e0       	ldi	r24, 0x01	; 1
    1a08:	0e 94 5b 00 	call	0xb6	; 0xb6 <lcd_command_write>
    1a0c:	80 91 17 03 	lds	r24, 0x0317
    1a10:	84 fd       	sbrc	r24, 4
    1a12:	0e 94 e8 06 	call	0xdd0	; 0xdd0 <menu_option_runP1>
    1a16:	80 91 17 03 	lds	r24, 0x0317
    1a1a:	85 fd       	sbrc	r24, 5
    1a1c:	0e 94 3a 07 	call	0xe74	; 0xe74 <menu_option_runP2>
    1a20:	80 91 17 03 	lds	r24, 0x0317
    1a24:	80 73       	andi	r24, 0x30	; 48
    1a26:	09 f0       	breq	.+2      	; 0x1a2a <main+0xb12>
    1a28:	c7 ca       	rjmp	.-2674   	; 0xfb8 <main+0xa0>
    1a2a:	0e 94 8f 06 	call	0xd1e	; 0xd1e <menu_option_runP0>
    1a2e:	c4 ca       	rjmp	.-2680   	; 0xfb8 <main+0xa0>
    1a30:	89 ec       	ldi	r24, 0xC9	; 201
    1a32:	f9 cc       	rjmp	.-1550   	; 0x1426 <main+0x50e>
    1a34:	89 ec       	ldi	r24, 0xC9	; 201
    1a36:	3e ce       	rjmp	.-900    	; 0x16b4 <main+0x79c>
    1a38:	89 ec       	ldi	r24, 0xC9	; 201
    1a3a:	85 cf       	rjmp	.-246    	; 0x1946 <main+0xa2e>

00001a3c <__udivmodqi4>:
    1a3c:	99 1b       	sub	r25, r25
    1a3e:	79 e0       	ldi	r23, 0x09	; 9
    1a40:	04 c0       	rjmp	.+8      	; 0x1a4a <__udivmodqi4_ep>

00001a42 <__udivmodqi4_loop>:
    1a42:	99 1f       	adc	r25, r25
    1a44:	96 17       	cp	r25, r22
    1a46:	08 f0       	brcs	.+2      	; 0x1a4a <__udivmodqi4_ep>
    1a48:	96 1b       	sub	r25, r22

00001a4a <__udivmodqi4_ep>:
    1a4a:	88 1f       	adc	r24, r24
    1a4c:	7a 95       	dec	r23
    1a4e:	c9 f7       	brne	.-14     	; 0x1a42 <__udivmodqi4_loop>
    1a50:	80 95       	com	r24
    1a52:	08 95       	ret

00001a54 <__udivmodhi4>:
    1a54:	aa 1b       	sub	r26, r26
    1a56:	bb 1b       	sub	r27, r27
    1a58:	51 e1       	ldi	r21, 0x11	; 17
    1a5a:	07 c0       	rjmp	.+14     	; 0x1a6a <__udivmodhi4_ep>

00001a5c <__udivmodhi4_loop>:
    1a5c:	aa 1f       	adc	r26, r26
    1a5e:	bb 1f       	adc	r27, r27
    1a60:	a6 17       	cp	r26, r22
    1a62:	b7 07       	cpc	r27, r23
    1a64:	10 f0       	brcs	.+4      	; 0x1a6a <__udivmodhi4_ep>
    1a66:	a6 1b       	sub	r26, r22
    1a68:	b7 0b       	sbc	r27, r23

00001a6a <__udivmodhi4_ep>:
    1a6a:	88 1f       	adc	r24, r24
    1a6c:	99 1f       	adc	r25, r25
    1a6e:	5a 95       	dec	r21
    1a70:	a9 f7       	brne	.-22     	; 0x1a5c <__udivmodhi4_loop>
    1a72:	80 95       	com	r24
    1a74:	90 95       	com	r25
    1a76:	bc 01       	movw	r22, r24
    1a78:	cd 01       	movw	r24, r26
    1a7a:	08 95       	ret

00001a7c <__divmodhi4>:
    1a7c:	97 fb       	bst	r25, 7
    1a7e:	07 2e       	mov	r0, r23
    1a80:	16 f4       	brtc	.+4      	; 0x1a86 <__divmodhi4+0xa>
    1a82:	00 94       	com	r0
    1a84:	07 d0       	rcall	.+14     	; 0x1a94 <__divmodhi4_neg1>
    1a86:	77 fd       	sbrc	r23, 7
    1a88:	09 d0       	rcall	.+18     	; 0x1a9c <__divmodhi4_neg2>
    1a8a:	0e 94 2a 0d 	call	0x1a54	; 0x1a54 <__udivmodhi4>
    1a8e:	07 fc       	sbrc	r0, 7
    1a90:	05 d0       	rcall	.+10     	; 0x1a9c <__divmodhi4_neg2>
    1a92:	3e f4       	brtc	.+14     	; 0x1aa2 <__divmodhi4_exit>

00001a94 <__divmodhi4_neg1>:
    1a94:	90 95       	com	r25
    1a96:	81 95       	neg	r24
    1a98:	9f 4f       	sbci	r25, 0xFF	; 255
    1a9a:	08 95       	ret

00001a9c <__divmodhi4_neg2>:
    1a9c:	70 95       	com	r23
    1a9e:	61 95       	neg	r22
    1aa0:	7f 4f       	sbci	r23, 0xFF	; 255

00001aa2 <__divmodhi4_exit>:
    1aa2:	08 95       	ret

00001aa4 <__fixsfsi>:
    1aa4:	04 d0       	rcall	.+8      	; 0x1aae <__fixunssfsi>
    1aa6:	68 94       	set
    1aa8:	b1 11       	cpse	r27, r1
    1aaa:	8d c0       	rjmp	.+282    	; 0x1bc6 <__fp_szero>
    1aac:	08 95       	ret

00001aae <__fixunssfsi>:
    1aae:	70 d0       	rcall	.+224    	; 0x1b90 <__fp_splitA>
    1ab0:	88 f0       	brcs	.+34     	; 0x1ad4 <__fixunssfsi+0x26>
    1ab2:	9f 57       	subi	r25, 0x7F	; 127
    1ab4:	90 f0       	brcs	.+36     	; 0x1ada <__fixunssfsi+0x2c>
    1ab6:	b9 2f       	mov	r27, r25
    1ab8:	99 27       	eor	r25, r25
    1aba:	b7 51       	subi	r27, 0x17	; 23
    1abc:	a0 f0       	brcs	.+40     	; 0x1ae6 <__fixunssfsi+0x38>
    1abe:	d1 f0       	breq	.+52     	; 0x1af4 <__fixunssfsi+0x46>
    1ac0:	66 0f       	add	r22, r22
    1ac2:	77 1f       	adc	r23, r23
    1ac4:	88 1f       	adc	r24, r24
    1ac6:	99 1f       	adc	r25, r25
    1ac8:	1a f0       	brmi	.+6      	; 0x1ad0 <__fixunssfsi+0x22>
    1aca:	ba 95       	dec	r27
    1acc:	c9 f7       	brne	.-14     	; 0x1ac0 <__fixunssfsi+0x12>
    1ace:	12 c0       	rjmp	.+36     	; 0x1af4 <__fixunssfsi+0x46>
    1ad0:	b1 30       	cpi	r27, 0x01	; 1
    1ad2:	81 f0       	breq	.+32     	; 0x1af4 <__fixunssfsi+0x46>
    1ad4:	77 d0       	rcall	.+238    	; 0x1bc4 <__fp_zero>
    1ad6:	b1 e0       	ldi	r27, 0x01	; 1
    1ad8:	08 95       	ret
    1ada:	74 c0       	rjmp	.+232    	; 0x1bc4 <__fp_zero>
    1adc:	67 2f       	mov	r22, r23
    1ade:	78 2f       	mov	r23, r24
    1ae0:	88 27       	eor	r24, r24
    1ae2:	b8 5f       	subi	r27, 0xF8	; 248
    1ae4:	39 f0       	breq	.+14     	; 0x1af4 <__fixunssfsi+0x46>
    1ae6:	b9 3f       	cpi	r27, 0xF9	; 249
    1ae8:	cc f3       	brlt	.-14     	; 0x1adc <__fixunssfsi+0x2e>
    1aea:	86 95       	lsr	r24
    1aec:	77 95       	ror	r23
    1aee:	67 95       	ror	r22
    1af0:	b3 95       	inc	r27
    1af2:	d9 f7       	brne	.-10     	; 0x1aea <__fixunssfsi+0x3c>
    1af4:	3e f4       	brtc	.+14     	; 0x1b04 <__fixunssfsi+0x56>
    1af6:	90 95       	com	r25
    1af8:	80 95       	com	r24
    1afa:	70 95       	com	r23
    1afc:	61 95       	neg	r22
    1afe:	7f 4f       	sbci	r23, 0xFF	; 255
    1b00:	8f 4f       	sbci	r24, 0xFF	; 255
    1b02:	9f 4f       	sbci	r25, 0xFF	; 255
    1b04:	08 95       	ret

00001b06 <__floatunsisf>:
    1b06:	e8 94       	clt
    1b08:	09 c0       	rjmp	.+18     	; 0x1b1c <__floatsisf+0x12>

00001b0a <__floatsisf>:
    1b0a:	97 fb       	bst	r25, 7
    1b0c:	3e f4       	brtc	.+14     	; 0x1b1c <__floatsisf+0x12>
    1b0e:	90 95       	com	r25
    1b10:	80 95       	com	r24
    1b12:	70 95       	com	r23
    1b14:	61 95       	neg	r22
    1b16:	7f 4f       	sbci	r23, 0xFF	; 255
    1b18:	8f 4f       	sbci	r24, 0xFF	; 255
    1b1a:	9f 4f       	sbci	r25, 0xFF	; 255
    1b1c:	99 23       	and	r25, r25
    1b1e:	a9 f0       	breq	.+42     	; 0x1b4a <__floatsisf+0x40>
    1b20:	f9 2f       	mov	r31, r25
    1b22:	96 e9       	ldi	r25, 0x96	; 150
    1b24:	bb 27       	eor	r27, r27
    1b26:	93 95       	inc	r25
    1b28:	f6 95       	lsr	r31
    1b2a:	87 95       	ror	r24
    1b2c:	77 95       	ror	r23
    1b2e:	67 95       	ror	r22
    1b30:	b7 95       	ror	r27
    1b32:	f1 11       	cpse	r31, r1
    1b34:	f8 cf       	rjmp	.-16     	; 0x1b26 <__floatsisf+0x1c>
    1b36:	fa f4       	brpl	.+62     	; 0x1b76 <__floatsisf+0x6c>
    1b38:	bb 0f       	add	r27, r27
    1b3a:	11 f4       	brne	.+4      	; 0x1b40 <__floatsisf+0x36>
    1b3c:	60 ff       	sbrs	r22, 0
    1b3e:	1b c0       	rjmp	.+54     	; 0x1b76 <__floatsisf+0x6c>
    1b40:	6f 5f       	subi	r22, 0xFF	; 255
    1b42:	7f 4f       	sbci	r23, 0xFF	; 255
    1b44:	8f 4f       	sbci	r24, 0xFF	; 255
    1b46:	9f 4f       	sbci	r25, 0xFF	; 255
    1b48:	16 c0       	rjmp	.+44     	; 0x1b76 <__floatsisf+0x6c>
    1b4a:	88 23       	and	r24, r24
    1b4c:	11 f0       	breq	.+4      	; 0x1b52 <__floatsisf+0x48>
    1b4e:	96 e9       	ldi	r25, 0x96	; 150
    1b50:	11 c0       	rjmp	.+34     	; 0x1b74 <__floatsisf+0x6a>
    1b52:	77 23       	and	r23, r23
    1b54:	21 f0       	breq	.+8      	; 0x1b5e <__floatsisf+0x54>
    1b56:	9e e8       	ldi	r25, 0x8E	; 142
    1b58:	87 2f       	mov	r24, r23
    1b5a:	76 2f       	mov	r23, r22
    1b5c:	05 c0       	rjmp	.+10     	; 0x1b68 <__floatsisf+0x5e>
    1b5e:	66 23       	and	r22, r22
    1b60:	71 f0       	breq	.+28     	; 0x1b7e <__floatsisf+0x74>
    1b62:	96 e8       	ldi	r25, 0x86	; 134
    1b64:	86 2f       	mov	r24, r22
    1b66:	70 e0       	ldi	r23, 0x00	; 0
    1b68:	60 e0       	ldi	r22, 0x00	; 0
    1b6a:	2a f0       	brmi	.+10     	; 0x1b76 <__floatsisf+0x6c>
    1b6c:	9a 95       	dec	r25
    1b6e:	66 0f       	add	r22, r22
    1b70:	77 1f       	adc	r23, r23
    1b72:	88 1f       	adc	r24, r24
    1b74:	da f7       	brpl	.-10     	; 0x1b6c <__floatsisf+0x62>
    1b76:	88 0f       	add	r24, r24
    1b78:	96 95       	lsr	r25
    1b7a:	87 95       	ror	r24
    1b7c:	97 f9       	bld	r25, 7
    1b7e:	08 95       	ret

00001b80 <__fp_split3>:
    1b80:	57 fd       	sbrc	r21, 7
    1b82:	90 58       	subi	r25, 0x80	; 128
    1b84:	44 0f       	add	r20, r20
    1b86:	55 1f       	adc	r21, r21
    1b88:	59 f0       	breq	.+22     	; 0x1ba0 <__fp_splitA+0x10>
    1b8a:	5f 3f       	cpi	r21, 0xFF	; 255
    1b8c:	71 f0       	breq	.+28     	; 0x1baa <__fp_splitA+0x1a>
    1b8e:	47 95       	ror	r20

00001b90 <__fp_splitA>:
    1b90:	88 0f       	add	r24, r24
    1b92:	97 fb       	bst	r25, 7
    1b94:	99 1f       	adc	r25, r25
    1b96:	61 f0       	breq	.+24     	; 0x1bb0 <__fp_splitA+0x20>
    1b98:	9f 3f       	cpi	r25, 0xFF	; 255
    1b9a:	79 f0       	breq	.+30     	; 0x1bba <__fp_splitA+0x2a>
    1b9c:	87 95       	ror	r24
    1b9e:	08 95       	ret
    1ba0:	12 16       	cp	r1, r18
    1ba2:	13 06       	cpc	r1, r19
    1ba4:	14 06       	cpc	r1, r20
    1ba6:	55 1f       	adc	r21, r21
    1ba8:	f2 cf       	rjmp	.-28     	; 0x1b8e <__fp_split3+0xe>
    1baa:	46 95       	lsr	r20
    1bac:	f1 df       	rcall	.-30     	; 0x1b90 <__fp_splitA>
    1bae:	08 c0       	rjmp	.+16     	; 0x1bc0 <__fp_splitA+0x30>
    1bb0:	16 16       	cp	r1, r22
    1bb2:	17 06       	cpc	r1, r23
    1bb4:	18 06       	cpc	r1, r24
    1bb6:	99 1f       	adc	r25, r25
    1bb8:	f1 cf       	rjmp	.-30     	; 0x1b9c <__fp_splitA+0xc>
    1bba:	86 95       	lsr	r24
    1bbc:	71 05       	cpc	r23, r1
    1bbe:	61 05       	cpc	r22, r1
    1bc0:	08 94       	sec
    1bc2:	08 95       	ret

00001bc4 <__fp_zero>:
    1bc4:	e8 94       	clt

00001bc6 <__fp_szero>:
    1bc6:	bb 27       	eor	r27, r27
    1bc8:	66 27       	eor	r22, r22
    1bca:	77 27       	eor	r23, r23
    1bcc:	cb 01       	movw	r24, r22
    1bce:	97 f9       	bld	r25, 7
    1bd0:	08 95       	ret

00001bd2 <__mulsf3>:
    1bd2:	0b d0       	rcall	.+22     	; 0x1bea <__mulsf3x>
    1bd4:	78 c0       	rjmp	.+240    	; 0x1cc6 <__fp_round>
    1bd6:	69 d0       	rcall	.+210    	; 0x1caa <__fp_pscA>
    1bd8:	28 f0       	brcs	.+10     	; 0x1be4 <__mulsf3+0x12>
    1bda:	6e d0       	rcall	.+220    	; 0x1cb8 <__fp_pscB>
    1bdc:	18 f0       	brcs	.+6      	; 0x1be4 <__mulsf3+0x12>
    1bde:	95 23       	and	r25, r21
    1be0:	09 f0       	breq	.+2      	; 0x1be4 <__mulsf3+0x12>
    1be2:	5a c0       	rjmp	.+180    	; 0x1c98 <__fp_inf>
    1be4:	5f c0       	rjmp	.+190    	; 0x1ca4 <__fp_nan>
    1be6:	11 24       	eor	r1, r1
    1be8:	ee cf       	rjmp	.-36     	; 0x1bc6 <__fp_szero>

00001bea <__mulsf3x>:
    1bea:	ca df       	rcall	.-108    	; 0x1b80 <__fp_split3>
    1bec:	a0 f3       	brcs	.-24     	; 0x1bd6 <__mulsf3+0x4>

00001bee <__mulsf3_pse>:
    1bee:	95 9f       	mul	r25, r21
    1bf0:	d1 f3       	breq	.-12     	; 0x1be6 <__mulsf3+0x14>
    1bf2:	95 0f       	add	r25, r21
    1bf4:	50 e0       	ldi	r21, 0x00	; 0
    1bf6:	55 1f       	adc	r21, r21
    1bf8:	62 9f       	mul	r22, r18
    1bfa:	f0 01       	movw	r30, r0
    1bfc:	72 9f       	mul	r23, r18
    1bfe:	bb 27       	eor	r27, r27
    1c00:	f0 0d       	add	r31, r0
    1c02:	b1 1d       	adc	r27, r1
    1c04:	63 9f       	mul	r22, r19
    1c06:	aa 27       	eor	r26, r26
    1c08:	f0 0d       	add	r31, r0
    1c0a:	b1 1d       	adc	r27, r1
    1c0c:	aa 1f       	adc	r26, r26
    1c0e:	64 9f       	mul	r22, r20
    1c10:	66 27       	eor	r22, r22
    1c12:	b0 0d       	add	r27, r0
    1c14:	a1 1d       	adc	r26, r1
    1c16:	66 1f       	adc	r22, r22
    1c18:	82 9f       	mul	r24, r18
    1c1a:	22 27       	eor	r18, r18
    1c1c:	b0 0d       	add	r27, r0
    1c1e:	a1 1d       	adc	r26, r1
    1c20:	62 1f       	adc	r22, r18
    1c22:	73 9f       	mul	r23, r19
    1c24:	b0 0d       	add	r27, r0
    1c26:	a1 1d       	adc	r26, r1
    1c28:	62 1f       	adc	r22, r18
    1c2a:	83 9f       	mul	r24, r19
    1c2c:	a0 0d       	add	r26, r0
    1c2e:	61 1d       	adc	r22, r1
    1c30:	22 1f       	adc	r18, r18
    1c32:	74 9f       	mul	r23, r20
    1c34:	33 27       	eor	r19, r19
    1c36:	a0 0d       	add	r26, r0
    1c38:	61 1d       	adc	r22, r1
    1c3a:	23 1f       	adc	r18, r19
    1c3c:	84 9f       	mul	r24, r20
    1c3e:	60 0d       	add	r22, r0
    1c40:	21 1d       	adc	r18, r1
    1c42:	82 2f       	mov	r24, r18
    1c44:	76 2f       	mov	r23, r22
    1c46:	6a 2f       	mov	r22, r26
    1c48:	11 24       	eor	r1, r1
    1c4a:	9f 57       	subi	r25, 0x7F	; 127
    1c4c:	50 40       	sbci	r21, 0x00	; 0
    1c4e:	8a f0       	brmi	.+34     	; 0x1c72 <__mulsf3_pse+0x84>
    1c50:	e1 f0       	breq	.+56     	; 0x1c8a <__mulsf3_pse+0x9c>
    1c52:	88 23       	and	r24, r24
    1c54:	4a f0       	brmi	.+18     	; 0x1c68 <__mulsf3_pse+0x7a>
    1c56:	ee 0f       	add	r30, r30
    1c58:	ff 1f       	adc	r31, r31
    1c5a:	bb 1f       	adc	r27, r27
    1c5c:	66 1f       	adc	r22, r22
    1c5e:	77 1f       	adc	r23, r23
    1c60:	88 1f       	adc	r24, r24
    1c62:	91 50       	subi	r25, 0x01	; 1
    1c64:	50 40       	sbci	r21, 0x00	; 0
    1c66:	a9 f7       	brne	.-22     	; 0x1c52 <__mulsf3_pse+0x64>
    1c68:	9e 3f       	cpi	r25, 0xFE	; 254
    1c6a:	51 05       	cpc	r21, r1
    1c6c:	70 f0       	brcs	.+28     	; 0x1c8a <__mulsf3_pse+0x9c>
    1c6e:	14 c0       	rjmp	.+40     	; 0x1c98 <__fp_inf>
    1c70:	aa cf       	rjmp	.-172    	; 0x1bc6 <__fp_szero>
    1c72:	5f 3f       	cpi	r21, 0xFF	; 255
    1c74:	ec f3       	brlt	.-6      	; 0x1c70 <__mulsf3_pse+0x82>
    1c76:	98 3e       	cpi	r25, 0xE8	; 232
    1c78:	dc f3       	brlt	.-10     	; 0x1c70 <__mulsf3_pse+0x82>
    1c7a:	86 95       	lsr	r24
    1c7c:	77 95       	ror	r23
    1c7e:	67 95       	ror	r22
    1c80:	b7 95       	ror	r27
    1c82:	f7 95       	ror	r31
    1c84:	e7 95       	ror	r30
    1c86:	9f 5f       	subi	r25, 0xFF	; 255
    1c88:	c1 f7       	brne	.-16     	; 0x1c7a <__mulsf3_pse+0x8c>
    1c8a:	fe 2b       	or	r31, r30
    1c8c:	88 0f       	add	r24, r24
    1c8e:	91 1d       	adc	r25, r1
    1c90:	96 95       	lsr	r25
    1c92:	87 95       	ror	r24
    1c94:	97 f9       	bld	r25, 7
    1c96:	08 95       	ret

00001c98 <__fp_inf>:
    1c98:	97 f9       	bld	r25, 7
    1c9a:	9f 67       	ori	r25, 0x7F	; 127
    1c9c:	80 e8       	ldi	r24, 0x80	; 128
    1c9e:	70 e0       	ldi	r23, 0x00	; 0
    1ca0:	60 e0       	ldi	r22, 0x00	; 0
    1ca2:	08 95       	ret

00001ca4 <__fp_nan>:
    1ca4:	9f ef       	ldi	r25, 0xFF	; 255
    1ca6:	80 ec       	ldi	r24, 0xC0	; 192
    1ca8:	08 95       	ret

00001caa <__fp_pscA>:
    1caa:	00 24       	eor	r0, r0
    1cac:	0a 94       	dec	r0
    1cae:	16 16       	cp	r1, r22
    1cb0:	17 06       	cpc	r1, r23
    1cb2:	18 06       	cpc	r1, r24
    1cb4:	09 06       	cpc	r0, r25
    1cb6:	08 95       	ret

00001cb8 <__fp_pscB>:
    1cb8:	00 24       	eor	r0, r0
    1cba:	0a 94       	dec	r0
    1cbc:	12 16       	cp	r1, r18
    1cbe:	13 06       	cpc	r1, r19
    1cc0:	14 06       	cpc	r1, r20
    1cc2:	05 06       	cpc	r0, r21
    1cc4:	08 95       	ret

00001cc6 <__fp_round>:
    1cc6:	09 2e       	mov	r0, r25
    1cc8:	03 94       	inc	r0
    1cca:	00 0c       	add	r0, r0
    1ccc:	11 f4       	brne	.+4      	; 0x1cd2 <__fp_round+0xc>
    1cce:	88 23       	and	r24, r24
    1cd0:	52 f0       	brmi	.+20     	; 0x1ce6 <__fp_round+0x20>
    1cd2:	bb 0f       	add	r27, r27
    1cd4:	40 f4       	brcc	.+16     	; 0x1ce6 <__fp_round+0x20>
    1cd6:	bf 2b       	or	r27, r31
    1cd8:	11 f4       	brne	.+4      	; 0x1cde <__fp_round+0x18>
    1cda:	60 ff       	sbrs	r22, 0
    1cdc:	04 c0       	rjmp	.+8      	; 0x1ce6 <__fp_round+0x20>
    1cde:	6f 5f       	subi	r22, 0xFF	; 255
    1ce0:	7f 4f       	sbci	r23, 0xFF	; 255
    1ce2:	8f 4f       	sbci	r24, 0xFF	; 255
    1ce4:	9f 4f       	sbci	r25, 0xFF	; 255
    1ce6:	08 95       	ret

00001ce8 <itoa>:
    1ce8:	fb 01       	movw	r30, r22
    1cea:	9f 01       	movw	r18, r30
    1cec:	e8 94       	clt
    1cee:	42 30       	cpi	r20, 0x02	; 2
    1cf0:	c4 f0       	brlt	.+48     	; 0x1d22 <itoa+0x3a>
    1cf2:	45 32       	cpi	r20, 0x25	; 37
    1cf4:	b4 f4       	brge	.+44     	; 0x1d22 <itoa+0x3a>
    1cf6:	4a 30       	cpi	r20, 0x0A	; 10
    1cf8:	29 f4       	brne	.+10     	; 0x1d04 <itoa+0x1c>
    1cfa:	97 fb       	bst	r25, 7
    1cfc:	1e f4       	brtc	.+6      	; 0x1d04 <itoa+0x1c>
    1cfe:	90 95       	com	r25
    1d00:	81 95       	neg	r24
    1d02:	9f 4f       	sbci	r25, 0xFF	; 255
    1d04:	64 2f       	mov	r22, r20
    1d06:	77 27       	eor	r23, r23
    1d08:	0e 94 2a 0d 	call	0x1a54	; 0x1a54 <__udivmodhi4>
    1d0c:	80 5d       	subi	r24, 0xD0	; 208
    1d0e:	8a 33       	cpi	r24, 0x3A	; 58
    1d10:	0c f0       	brlt	.+2      	; 0x1d14 <itoa+0x2c>
    1d12:	89 5d       	subi	r24, 0xD9	; 217
    1d14:	81 93       	st	Z+, r24
    1d16:	cb 01       	movw	r24, r22
    1d18:	00 97       	sbiw	r24, 0x00	; 0
    1d1a:	a1 f7       	brne	.-24     	; 0x1d04 <itoa+0x1c>
    1d1c:	16 f4       	brtc	.+4      	; 0x1d22 <itoa+0x3a>
    1d1e:	5d e2       	ldi	r21, 0x2D	; 45
    1d20:	51 93       	st	Z+, r21
    1d22:	10 82       	st	Z, r1
    1d24:	c9 01       	movw	r24, r18
    1d26:	0c 94 a0 0e 	jmp	0x1d40	; 0x1d40 <strrev>

00001d2a <__eerd_word_m32>:
    1d2a:	a8 e1       	ldi	r26, 0x18	; 24
    1d2c:	b0 e0       	ldi	r27, 0x00	; 0
    1d2e:	42 e0       	ldi	r20, 0x02	; 2
    1d30:	50 e0       	ldi	r21, 0x00	; 0
    1d32:	0c 94 b2 0e 	jmp	0x1d64	; 0x1d64 <__eerd_blraw_m32>

00001d36 <__eewr_word_m32>:
    1d36:	0e 94 c0 0e 	call	0x1d80	; 0x1d80 <__eewr_byte_m32>
    1d3a:	27 2f       	mov	r18, r23
    1d3c:	0c 94 c1 0e 	jmp	0x1d82	; 0x1d82 <__eewr_r18_m32>

00001d40 <strrev>:
    1d40:	dc 01       	movw	r26, r24
    1d42:	fc 01       	movw	r30, r24
    1d44:	67 2f       	mov	r22, r23
    1d46:	71 91       	ld	r23, Z+
    1d48:	77 23       	and	r23, r23
    1d4a:	e1 f7       	brne	.-8      	; 0x1d44 <strrev+0x4>
    1d4c:	32 97       	sbiw	r30, 0x02	; 2
    1d4e:	04 c0       	rjmp	.+8      	; 0x1d58 <strrev+0x18>
    1d50:	7c 91       	ld	r23, X
    1d52:	6d 93       	st	X+, r22
    1d54:	70 83       	st	Z, r23
    1d56:	62 91       	ld	r22, -Z
    1d58:	ae 17       	cp	r26, r30
    1d5a:	bf 07       	cpc	r27, r31
    1d5c:	c8 f3       	brcs	.-14     	; 0x1d50 <strrev+0x10>
    1d5e:	08 95       	ret

00001d60 <__eerd_block_m32>:
    1d60:	dc 01       	movw	r26, r24
    1d62:	cb 01       	movw	r24, r22

00001d64 <__eerd_blraw_m32>:
    1d64:	fc 01       	movw	r30, r24
    1d66:	e1 99       	sbic	0x1c, 1	; 28
    1d68:	fe cf       	rjmp	.-4      	; 0x1d66 <__eerd_blraw_m32+0x2>
    1d6a:	06 c0       	rjmp	.+12     	; 0x1d78 <__eerd_blraw_m32+0x14>
    1d6c:	ff bb       	out	0x1f, r31	; 31
    1d6e:	ee bb       	out	0x1e, r30	; 30
    1d70:	e0 9a       	sbi	0x1c, 0	; 28
    1d72:	31 96       	adiw	r30, 0x01	; 1
    1d74:	0d b2       	in	r0, 0x1d	; 29
    1d76:	0d 92       	st	X+, r0
    1d78:	41 50       	subi	r20, 0x01	; 1
    1d7a:	50 40       	sbci	r21, 0x00	; 0
    1d7c:	b8 f7       	brcc	.-18     	; 0x1d6c <__eerd_blraw_m32+0x8>
    1d7e:	08 95       	ret

00001d80 <__eewr_byte_m32>:
    1d80:	26 2f       	mov	r18, r22

00001d82 <__eewr_r18_m32>:
    1d82:	e1 99       	sbic	0x1c, 1	; 28
    1d84:	fe cf       	rjmp	.-4      	; 0x1d82 <__eewr_r18_m32>
    1d86:	9f bb       	out	0x1f, r25	; 31
    1d88:	8e bb       	out	0x1e, r24	; 30
    1d8a:	2d bb       	out	0x1d, r18	; 29
    1d8c:	0f b6       	in	r0, 0x3f	; 63
    1d8e:	f8 94       	cli
    1d90:	e2 9a       	sbi	0x1c, 2	; 28
    1d92:	e1 9a       	sbi	0x1c, 1	; 28
    1d94:	0f be       	out	0x3f, r0	; 63
    1d96:	01 96       	adiw	r24, 0x01	; 1
    1d98:	08 95       	ret

00001d9a <_exit>:
    1d9a:	f8 94       	cli

00001d9c <__stop_program>:
    1d9c:	ff cf       	rjmp	.-2      	; 0x1d9c <__stop_program>
